; generated by Component: ARM Compiler 5.05 update 1 (build 106) Tool: ArmCC [4d0efa]
; commandline ArmCC [--list --split_sections --debug -c --asm --interleave -o.\flash\obj\bsp_detectact.o --asm_dir=.\Flash\List\ --list_dir=.\Flash\List\ --depend=.\flash\obj\bsp_detectact.d --cpu=Cortex-M3 --apcs=interwork -O0 --diag_suppress=9931,870 -I..\..\Libraries\CMSIS\Device\ST\STM32F10x\Include -I..\..\Libraries\STM32F10x_StdPeriph_Driver\inc -I..\..\User\bsp -I..\..\User\bsp\inc -I..\..\User -I..\..\Libraries\CMSIS\Include -I..\..\FreeRTOS\include -I..\..\FreeRTOS\portable\RVDS\ARM_CM3 -I..\..\User\app\inc -IF:\LuckyXRQ\CleanCar\Project\MDK-ARM(uV4)\RTE -ID:\soft\MDK5\ARM\PACK\Keil\STM32F1xx_DFP\1.0.5\Device\Include -ID:\soft\MDK5\ARM\CMSIS\Include -D__MICROLIB -D__UVISION_VERSION=514 -DSTM32F10X_HD -DUSE_STDPERIPH_DRIVER -DSTM32F10X_HD --omf_browse=.\flash\obj\bsp_detectact.crf ..\..\User\app\src\bsp_DetectAct.c]
                          THUMB

                          AREA ||i.bsp_ADCConfig||, CODE, READONLY, ALIGN=2

                  bsp_ADCConfig PROC
;;;495    */
;;;496    static void bsp_ADCConfig(void)
000000  b500              PUSH     {lr}
;;;497    {
000002  b087              SUB      sp,sp,#0x1c
;;;498    	ADC_InitTypeDef ADC_InitStructure; 
;;;499    	GPIO_InitTypeDef GPIO_InitStructure;
;;;500    
;;;501    	RCC_APB2PeriphClockCmd(RCC_APB2Periph_GPIOC |RCC_APB2Periph_ADC2	, ENABLE );	  //使能ADC2通道时钟
000004  2101              MOVS     r1,#1
000006  f44f6082          MOV      r0,#0x410
00000a  f7fffffe          BL       RCC_APB2PeriphClockCmd
;;;502     
;;;503    
;;;504    	RCC_ADCCLKConfig(RCC_PCLK2_Div6);   //设置ADC分频因子6 72M/6=12,ADC最大时间不能超过14M
00000e  f44f4000          MOV      r0,#0x8000
000012  f7fffffe          BL       RCC_ADCCLKConfig
;;;505    
;;;506    	//PA1 作为模拟通道输入引脚                         
;;;507    	GPIO_InitStructure.GPIO_Pin = GPIO_Pin_4;
000016  2010              MOVS     r0,#0x10
000018  f8ad0004          STRH     r0,[sp,#4]
;;;508    	GPIO_InitStructure.GPIO_Mode = GPIO_Mode_AIN;		//模拟输入引脚
00001c  2000              MOVS     r0,#0
00001e  f88d0007          STRB     r0,[sp,#7]
;;;509    	GPIO_Init(GPIOC, &GPIO_InitStructure);	
000022  a901              ADD      r1,sp,#4
000024  4817              LDR      r0,|L1.132|
000026  f7fffffe          BL       GPIO_Init
;;;510    
;;;511    	ADC_DeInit(ADC2);  //复位ADC2 
00002a  4817              LDR      r0,|L1.136|
00002c  f7fffffe          BL       ADC_DeInit
;;;512    
;;;513    	ADC_InitStructure.ADC_Mode = ADC_Mode_Independent;	//ADC工作模式:ADC2和ADC2工作在独立模式
000030  2000              MOVS     r0,#0
000032  9002              STR      r0,[sp,#8]
;;;514    	ADC_InitStructure.ADC_ScanConvMode = DISABLE;	//模数转换工作在单通道模式
000034  f88d000c          STRB     r0,[sp,#0xc]
;;;515    	ADC_InitStructure.ADC_ContinuousConvMode = DISABLE;	//模数转换工作在单次转换模式
000038  f88d000d          STRB     r0,[sp,#0xd]
;;;516    	ADC_InitStructure.ADC_ExternalTrigConv = ADC_ExternalTrigConv_None;	//转换由软件而不是外部触发启动
00003c  f44f2060          MOV      r0,#0xe0000
000040  9004              STR      r0,[sp,#0x10]
;;;517    	ADC_InitStructure.ADC_DataAlign = ADC_DataAlign_Right;	//ADC数据右对齐
000042  2000              MOVS     r0,#0
000044  9005              STR      r0,[sp,#0x14]
;;;518    	ADC_InitStructure.ADC_NbrOfChannel = 1;	//顺序进行规则转换的ADC通道的数目
000046  2001              MOVS     r0,#1
000048  f88d0018          STRB     r0,[sp,#0x18]
;;;519    	ADC_Init(ADC2, &ADC_InitStructure);	//根据ADC_InitStruct中指定的参数初始化外设ADCx的寄存器   
00004c  a902              ADD      r1,sp,#8
00004e  480e              LDR      r0,|L1.136|
000050  f7fffffe          BL       ADC_Init
;;;520    
;;;521      
;;;522    	ADC_Cmd(ADC2, ENABLE);	//使能指定的ADC2
000054  2101              MOVS     r1,#1
000056  480c              LDR      r0,|L1.136|
000058  f7fffffe          BL       ADC_Cmd
;;;523    	
;;;524    	ADC_ResetCalibration(ADC2);	//使能复位校准  
00005c  480a              LDR      r0,|L1.136|
00005e  f7fffffe          BL       ADC_ResetCalibration
;;;525    	 
;;;526    	while(ADC_GetResetCalibrationStatus(ADC2));	//等待复位校准结束
000062  bf00              NOP      
                  |L1.100|
000064  4808              LDR      r0,|L1.136|
000066  f7fffffe          BL       ADC_GetResetCalibrationStatus
00006a  2800              CMP      r0,#0
00006c  d1fa              BNE      |L1.100|
;;;527    	
;;;528    	ADC_StartCalibration(ADC2);	 //开启AD校准
00006e  4806              LDR      r0,|L1.136|
000070  f7fffffe          BL       ADC_StartCalibration
;;;529     
;;;530    	while(ADC_GetCalibrationStatus(ADC2));	 //等待校准结束
000074  bf00              NOP      
                  |L1.118|
000076  4804              LDR      r0,|L1.136|
000078  f7fffffe          BL       ADC_GetCalibrationStatus
00007c  2800              CMP      r0,#0
00007e  d1fa              BNE      |L1.118|
;;;531     
;;;532    }
000080  b007              ADD      sp,sp,#0x1c
000082  bd00              POP      {pc}
;;;533    
                          ENDP

                  |L1.132|
                          DCD      0x40011000
                  |L1.136|
                          DCD      0x40012800

                          AREA ||i.bsp_DetectAct||, CODE, READONLY, ALIGN=2

                  bsp_DetectAct PROC
;;;146    */
;;;147    void bsp_DetectAct(void)
000000  b570              PUSH     {r4-r6,lr}
;;;148    {
;;;149    	if( !detectAct.isRunning )
000002  48fe              LDR      r0,|L2.1020|
000004  7800              LDRB     r0,[r0,#0]  ; detectAct
000006  b900              CBNZ     r0,|L2.10|
                  |L2.8|
;;;150    		return ;
;;;151    	
;;;152    	switch(detectAct.action)
;;;153    	{
;;;154    		//----------管子对--1-----------------------------------------------------------------------------
;;;155    		case 0:
;;;156    		{
;;;157    			bsp_AWSetPinVal(PinMap[detectAct.pinMapIndex%PIN_MAP_MAX][1], AW_0); //先开接收，充电
;;;158    			detectAct.delay = xTaskGetTickCount();
;;;159    			detectAct.action++;
;;;160    			
;;;161    		}break;
;;;162    		
;;;163    		case 1:
;;;164    		{
;;;165    			if(xTaskGetTickCount() - detectAct.delay >= ChargeTime)
;;;166    			{
;;;167    				bsp_AWSetPinVal(PinMap[detectAct.pinMapIndex%PIN_MAP_MAX][0], AW_0); //再开发送，读AD
;;;168    				bsp_DelayUS(TimeAfterOpen);
;;;169    				adcContrast[detectAct.pinMapIndex%PIN_MAP_MAX][0] = bsp_GetAdScanValue();//开灯读
;;;170    				bsp_AWSetPinVal(PinMap[detectAct.pinMapIndex%PIN_MAP_MAX][0], AW_1);//关发射
;;;171    				bsp_DelayUS(TimeAfterClose);
;;;172    				adcContrast[detectAct.pinMapIndex%PIN_MAP_MAX][1] = bsp_GetAdScanValue();//关灯读
;;;173    				bsp_AWSetPinVal(PinMap[detectAct.pinMapIndex%PIN_MAP_MAX][1], AW_1);//关接收
;;;174    				
;;;175    				adcRealTime[detectAct.pinMapIndex%PIN_MAP_MAX] = adcContrast[detectAct.action/2][1] >= Sunlight ? 0 : adcContrast[detectAct.action/2][0];//如果读到太阳光了就当没有检测到障碍物
;;;176    				adcIsSunlight[detectAct.pinMapIndex%PIN_MAP_MAX] = adcContrast[detectAct.action/2][1] >= Sunlight ? 1 : 0;//记录是否被当阳光挡住了
;;;177    				detectAct.pinMapIndex++;
;;;178    				
;;;179    				detectAct.delay = xTaskGetTickCount();
;;;180    				detectAct.action++;
;;;181    			}
;;;182    		}break;
;;;183    		
;;;184    		//----------管子对--2-----------------------------------------------------------------------------
;;;185    		case 2:
;;;186    		{
;;;187    			if(xTaskGetTickCount() - detectAct.delay >= (IntervalTime-ChargeTime)) 
;;;188    			{
;;;189    				bsp_AWSetPinVal(PinMap[detectAct.pinMapIndex%PIN_MAP_MAX][1], AW_0); //先开接收，充电
;;;190    				detectAct.delay = xTaskGetTickCount();
;;;191    				detectAct.action++;
;;;192    			}
;;;193    		}break;
;;;194    		
;;;195    		case 3:
;;;196    		{
;;;197    			if(xTaskGetTickCount() - detectAct.delay >= ChargeTime)
;;;198    			{
;;;199    				bsp_AWSetPinVal(PinMap[detectAct.pinMapIndex%PIN_MAP_MAX][0], AW_0); //再开发送，读AD
;;;200    				bsp_DelayUS(TimeAfterOpen);
;;;201    				adcContrast[detectAct.pinMapIndex%PIN_MAP_MAX][0] = bsp_GetAdScanValue();//开灯读
;;;202    				bsp_AWSetPinVal(PinMap[detectAct.pinMapIndex%PIN_MAP_MAX][0], AW_1);//关发射
;;;203    				bsp_DelayUS(TimeAfterClose);
;;;204    				adcContrast[detectAct.pinMapIndex%PIN_MAP_MAX][1] = bsp_GetAdScanValue();//关灯读
;;;205    				bsp_AWSetPinVal(PinMap[detectAct.pinMapIndex%PIN_MAP_MAX][1], AW_1);//关接收
;;;206    				
;;;207    				adcRealTime[detectAct.pinMapIndex%PIN_MAP_MAX] = adcContrast[detectAct.action/2][1] >= Sunlight ? 0 : adcContrast[detectAct.action/2][0];//如果读到太阳光了就当没有检测到障碍物
;;;208    				adcIsSunlight[detectAct.pinMapIndex%PIN_MAP_MAX] = adcContrast[detectAct.action/2][1] >= Sunlight ? 1 : 0;//记录是否被当阳光挡住了
;;;209    				detectAct.pinMapIndex++;
;;;210    				
;;;211    				detectAct.delay = xTaskGetTickCount();
;;;212    				detectAct.action++;
;;;213    			}
;;;214    		}break;
;;;215    		
;;;216    		//----------管子对--3-----------------------------------------------------------------------------
;;;217    		case 4:
;;;218    		{
;;;219    			if(xTaskGetTickCount() - detectAct.delay >= (IntervalTime-ChargeTime)) 
;;;220    			{
;;;221    				bsp_AWSetPinVal(PinMap[detectAct.pinMapIndex%PIN_MAP_MAX][1], AW_0); //先开接收，充电
;;;222    				detectAct.delay = xTaskGetTickCount();
;;;223    				detectAct.action++;
;;;224    			}
;;;225    		}break;
;;;226    		
;;;227    		case 5:
;;;228    		{
;;;229    			if(xTaskGetTickCount() - detectAct.delay >= ChargeTime)
;;;230    			{
;;;231    				bsp_AWSetPinVal(PinMap[detectAct.pinMapIndex%PIN_MAP_MAX][0], AW_0); //再开发送，读AD
;;;232    				bsp_DelayUS(TimeAfterOpen);
;;;233    				adcContrast[detectAct.pinMapIndex%PIN_MAP_MAX][0] = bsp_GetAdScanValue();//开灯读
;;;234    				bsp_AWSetPinVal(PinMap[detectAct.pinMapIndex%PIN_MAP_MAX][0], AW_1);//关发射
;;;235    				bsp_DelayUS(TimeAfterClose);
;;;236    				adcContrast[detectAct.pinMapIndex%PIN_MAP_MAX][1] = bsp_GetAdScanValue();//关灯读
;;;237    				bsp_AWSetPinVal(PinMap[detectAct.pinMapIndex%PIN_MAP_MAX][1], AW_1);//关接收
;;;238    				
;;;239    				adcRealTime[detectAct.pinMapIndex%PIN_MAP_MAX] = adcContrast[detectAct.action/2][1] >= Sunlight ? 0 : adcContrast[detectAct.action/2][0];//如果读到太阳光了就当没有检测到障碍物
;;;240    				adcIsSunlight[detectAct.pinMapIndex%PIN_MAP_MAX] = adcContrast[detectAct.action/2][1] >= Sunlight ? 1 : 0;//记录是否被当阳光挡住了
;;;241    				detectAct.pinMapIndex++;
;;;242    				
;;;243    				detectAct.delay = xTaskGetTickCount();
;;;244    				detectAct.action++;
;;;245    			}
;;;246    		}break;
;;;247    		
;;;248    		//----------管子对--4-----------------------------------------------------------------------------
;;;249    		case 6:
;;;250    		{
;;;251    			if(xTaskGetTickCount() - detectAct.delay >= (IntervalTime-ChargeTime)) 
;;;252    			{
;;;253    				bsp_AWSetPinVal(PinMap[detectAct.pinMapIndex%PIN_MAP_MAX][1], AW_0); //先开接收，充电
;;;254    				detectAct.delay = xTaskGetTickCount();
;;;255    				detectAct.action++;
;;;256    			}
;;;257    		}break;
;;;258    		
;;;259    		case 7:
;;;260    		{
;;;261    			if(xTaskGetTickCount() - detectAct.delay >= ChargeTime)
;;;262    			{
;;;263    				bsp_AWSetPinVal(PinMap[detectAct.pinMapIndex%PIN_MAP_MAX][0], AW_0); //再开发送，读AD
;;;264    				bsp_DelayUS(TimeAfterOpen);
;;;265    				adcContrast[detectAct.pinMapIndex%PIN_MAP_MAX][0] = bsp_GetAdScanValue();//开灯读
;;;266    				bsp_AWSetPinVal(PinMap[detectAct.pinMapIndex%PIN_MAP_MAX][0], AW_1);//关发射
;;;267    				bsp_DelayUS(TimeAfterClose);
;;;268    				adcContrast[detectAct.pinMapIndex%PIN_MAP_MAX][1] = bsp_GetAdScanValue();//关灯读
;;;269    				bsp_AWSetPinVal(PinMap[detectAct.pinMapIndex%PIN_MAP_MAX][1], AW_1);//关接收
;;;270    				
;;;271    				adcRealTime[detectAct.pinMapIndex%PIN_MAP_MAX] = adcContrast[detectAct.action/2][1] >= Sunlight ? 0 : adcContrast[detectAct.action/2][0];//如果读到太阳光了就当没有检测到障碍物
;;;272    				adcIsSunlight[detectAct.pinMapIndex%PIN_MAP_MAX] = adcContrast[detectAct.action/2][1] >= Sunlight ? 1 : 0;//记录是否被当阳光挡住了
;;;273    				detectAct.pinMapIndex++;
;;;274    				
;;;275    				detectAct.delay = xTaskGetTickCount();
;;;276    				detectAct.action++;
;;;277    			}
;;;278    		}break;
;;;279    		
;;;280    		//----------管子对--5-----------------------------------------------------------------------------
;;;281    		case 8:
;;;282    		{
;;;283    			if(xTaskGetTickCount() - detectAct.delay >= (IntervalTime-ChargeTime)) 
;;;284    			{
;;;285    				bsp_AWSetPinVal(PinMap[detectAct.pinMapIndex%PIN_MAP_MAX][1], AW_0); //先开接收，充电
;;;286    				detectAct.delay = xTaskGetTickCount();
;;;287    				detectAct.action++;
;;;288    			}
;;;289    		}break;
;;;290    		
;;;291    		case 9:
;;;292    		{
;;;293    			if(xTaskGetTickCount() - detectAct.delay >= ChargeTime)
;;;294    			{
;;;295    				bsp_AWSetPinVal(PinMap[detectAct.pinMapIndex%PIN_MAP_MAX][0], AW_0); //再开发送，读AD
;;;296    				bsp_DelayUS(TimeAfterOpen);
;;;297    				adcContrast[detectAct.pinMapIndex%PIN_MAP_MAX][0] = bsp_GetAdScanValue();//开灯读
;;;298    				bsp_AWSetPinVal(PinMap[detectAct.pinMapIndex%PIN_MAP_MAX][0], AW_1);//关发射
;;;299    				bsp_DelayUS(TimeAfterClose);
;;;300    				adcContrast[detectAct.pinMapIndex%PIN_MAP_MAX][1] = bsp_GetAdScanValue();//关灯读
;;;301    				bsp_AWSetPinVal(PinMap[detectAct.pinMapIndex%PIN_MAP_MAX][1], AW_1);//关接收
;;;302    				
;;;303    				adcRealTime[detectAct.pinMapIndex%PIN_MAP_MAX] = adcContrast[detectAct.action/2][1] >= Sunlight ? 0 : adcContrast[detectAct.action/2][0];//如果读到太阳光了就当没有检测到障碍物
;;;304    				adcIsSunlight[detectAct.pinMapIndex%PIN_MAP_MAX] = adcContrast[detectAct.action/2][1] >= Sunlight ? 1 : 0;//记录是否被当阳光挡住了
;;;305    				detectAct.pinMapIndex++;
;;;306    				
;;;307    				detectAct.delay = xTaskGetTickCount();
;;;308    				detectAct.action++;
;;;309    			}
;;;310    		}break;
;;;311    		
;;;312    		//----------管子对--6-----------------------------------------------------------------------------
;;;313    		case 10:
;;;314    		{
;;;315    			if(xTaskGetTickCount() - detectAct.delay >= (IntervalTime-ChargeTime)) 
;;;316    			{
;;;317    				bsp_AWSetPinVal(PinMap[detectAct.pinMapIndex%PIN_MAP_MAX][1], AW_0); //先开接收，充电
;;;318    				detectAct.delay = xTaskGetTickCount();
;;;319    				detectAct.action++;
;;;320    			}
;;;321    		}break;
;;;322    		
;;;323    		case 11:
;;;324    		{
;;;325    			if(xTaskGetTickCount() - detectAct.delay >= ChargeTime)
;;;326    			{
;;;327    				bsp_AWSetPinVal(PinMap[detectAct.pinMapIndex%PIN_MAP_MAX][0], AW_0); //再开发送，读AD
;;;328    				bsp_DelayUS(TimeAfterOpen);
;;;329    				adcContrast[detectAct.pinMapIndex%PIN_MAP_MAX][0] = bsp_GetAdScanValue();//开灯读
;;;330    				bsp_AWSetPinVal(PinMap[detectAct.pinMapIndex%PIN_MAP_MAX][0], AW_1);//关发射
;;;331    				bsp_DelayUS(TimeAfterClose);
;;;332    				adcContrast[detectAct.pinMapIndex%PIN_MAP_MAX][1] = bsp_GetAdScanValue();//关灯读
;;;333    				bsp_AWSetPinVal(PinMap[detectAct.pinMapIndex%PIN_MAP_MAX][1], AW_1);//关接收
;;;334    				
;;;335    				adcRealTime[detectAct.pinMapIndex%PIN_MAP_MAX] = adcContrast[detectAct.action/2][1] >= Sunlight ? 0 : adcContrast[detectAct.action/2][0];//如果读到太阳光了就当没有检测到障碍物
;;;336    				adcIsSunlight[detectAct.pinMapIndex%PIN_MAP_MAX] = adcContrast[detectAct.action/2][1] >= Sunlight ? 1 : 0;//记录是否被当阳光挡住了
;;;337    				detectAct.pinMapIndex++;
;;;338    				
;;;339    				detectAct.delay = xTaskGetTickCount();
;;;340    				detectAct.action++;
;;;341    			}
;;;342    		}break;
;;;343    		
;;;344    		//----------管子对--7-----------------------------------------------------------------------------
;;;345    		case 12:
;;;346    		{
;;;347    			if(xTaskGetTickCount() - detectAct.delay >= (IntervalTime-ChargeTime)) 
;;;348    			{
;;;349    				bsp_AWSetPinVal(PinMap[detectAct.pinMapIndex%PIN_MAP_MAX][1], AW_0); //先开接收，充电
;;;350    				detectAct.delay = xTaskGetTickCount();
;;;351    				detectAct.action++;
;;;352    			}
;;;353    		}break;
;;;354    		
;;;355    		case 13:
;;;356    		{
;;;357    			if(xTaskGetTickCount() - detectAct.delay >= ChargeTime)
;;;358    			{
;;;359    				bsp_AWSetPinVal(PinMap[detectAct.pinMapIndex%PIN_MAP_MAX][0], AW_0); //再开发送，读AD
;;;360    				bsp_DelayUS(TimeAfterOpen);
;;;361    				adcContrast[detectAct.pinMapIndex%PIN_MAP_MAX][0] = bsp_GetAdScanValue();//开灯读
;;;362    				bsp_AWSetPinVal(PinMap[detectAct.pinMapIndex%PIN_MAP_MAX][0], AW_1);//关发射
;;;363    				bsp_DelayUS(TimeAfterClose);
;;;364    				adcContrast[detectAct.pinMapIndex%PIN_MAP_MAX][1] = bsp_GetAdScanValue();//关灯读
;;;365    				bsp_AWSetPinVal(PinMap[detectAct.pinMapIndex%PIN_MAP_MAX][1], AW_1);//关接收
;;;366    				
;;;367    				adcRealTime[detectAct.pinMapIndex%PIN_MAP_MAX] = adcContrast[detectAct.action/2][1] >= Sunlight ? 0 : adcContrast[detectAct.action/2][0];//如果读到太阳光了就当没有检测到障碍物
;;;368    				adcIsSunlight[detectAct.pinMapIndex%PIN_MAP_MAX] = adcContrast[detectAct.action/2][1] >= Sunlight ? 1 : 0;//记录是否被当阳光挡住了
;;;369    				detectAct.pinMapIndex++;
;;;370    				
;;;371    				detectAct.delay = xTaskGetTickCount();
;;;372    				detectAct.action++;
;;;373    			}
;;;374    		}break;
;;;375    		
;;;376    		//----------管子对--8-----------------------------------------------------------------------------
;;;377    		case 14:
;;;378    		{
;;;379    			if(xTaskGetTickCount() - detectAct.delay >= (IntervalTime-ChargeTime)) 
;;;380    			{
;;;381    				bsp_AWSetPinVal(PinMap[detectAct.pinMapIndex%PIN_MAP_MAX][1], AW_0); //先开接收，充电
;;;382    				detectAct.delay = xTaskGetTickCount();
;;;383    				detectAct.action++;
;;;384    			}
;;;385    		}break;
;;;386    		
;;;387    		case 15:
;;;388    		{
;;;389    			if(xTaskGetTickCount() - detectAct.delay >= ChargeTime)
;;;390    			{
;;;391    				bsp_AWSetPinVal(PinMap[detectAct.pinMapIndex%PIN_MAP_MAX][0], AW_0); //再开发送，读AD
;;;392    				bsp_DelayUS(TimeAfterOpen);
;;;393    				adcContrast[detectAct.pinMapIndex%PIN_MAP_MAX][0] = bsp_GetAdScanValue();//开灯读
;;;394    				bsp_AWSetPinVal(PinMap[detectAct.pinMapIndex%PIN_MAP_MAX][0], AW_1);//关发射
;;;395    				bsp_DelayUS(TimeAfterClose);
;;;396    				adcContrast[detectAct.pinMapIndex%PIN_MAP_MAX][1] = bsp_GetAdScanValue();//关灯读
;;;397    				bsp_AWSetPinVal(PinMap[detectAct.pinMapIndex%PIN_MAP_MAX][1], AW_1);//关接收
;;;398    				
;;;399    				adcRealTime[detectAct.pinMapIndex%PIN_MAP_MAX] = adcContrast[detectAct.action/2][1] >= Sunlight ? 0 : adcContrast[detectAct.action/2][0];//如果读到太阳光了就当没有检测到障碍物
;;;400    				adcIsSunlight[detectAct.pinMapIndex%PIN_MAP_MAX] = adcContrast[detectAct.action/2][1] >= Sunlight ? 1 : 0;//记录是否被当阳光挡住了
;;;401    				detectAct.pinMapIndex++;
;;;402    				
;;;403    				detectAct.delay = xTaskGetTickCount();
;;;404    				detectAct.action++;
;;;405    			}
;;;406    		}break;
;;;407    		
;;;408    		//----------管子对--9-----------------------------------------------------------------------------
;;;409    		case 16:
;;;410    		{
;;;411    			if(xTaskGetTickCount() - detectAct.delay >= (IntervalTime-ChargeTime)) 
;;;412    			{
;;;413    				bsp_AWSetPinVal(PinMap[detectAct.pinMapIndex%PIN_MAP_MAX][1], AW_0); //先开接收，充电
;;;414    				detectAct.delay = xTaskGetTickCount();
;;;415    				detectAct.action++;
;;;416    			}
;;;417    		}break;
;;;418    		
;;;419    		case 17:
;;;420    		{
;;;421    			if(xTaskGetTickCount() - detectAct.delay >= ChargeTime)
;;;422    			{
;;;423    				//bsp_AWSetPinVal(PinMap[detectAct.pinMapIndex%PIN_MAP_MAX][0], AW_0); //再开发送，读AD
;;;424    				bsp_DelayUS(TimeAfterOpen);
;;;425    				adcContrast[detectAct.pinMapIndex%PIN_MAP_MAX][0] = bsp_GetAdScanValue();//开灯读
;;;426    				bsp_AWSetPinVal(PinMap[detectAct.pinMapIndex%PIN_MAP_MAX][0], AW_1);//关发射
;;;427    				bsp_DelayUS(TimeAfterClose);
;;;428    				adcContrast[detectAct.pinMapIndex%PIN_MAP_MAX][1] = bsp_GetAdScanValue();//关灯读
;;;429    				bsp_AWSetPinVal(PinMap[detectAct.pinMapIndex%PIN_MAP_MAX][1], AW_1);//关接收
;;;430    				
;;;431    				adcRealTime[detectAct.pinMapIndex%PIN_MAP_MAX] = adcContrast[detectAct.action/2][1] >= Sunlight ? 0 : adcContrast[detectAct.action/2][0];//如果读到太阳光了就当没有检测到障碍物
;;;432    				adcIsSunlight[detectAct.pinMapIndex%PIN_MAP_MAX] = adcContrast[detectAct.action/2][1] >= Sunlight ? 1 : 0;//记录是否被当阳光挡住了
;;;433    				detectAct.pinMapIndex++;
;;;434    				
;;;435    				detectAct.delay = xTaskGetTickCount();
;;;436    				detectAct.action++;
;;;437    			}
;;;438    		}break;
;;;439    		
;;;440    
;;;441    		//----------管子对--10-----------------------------------------------------------------------------
;;;442    		case 18:
;;;443    		{
;;;444    			if(xTaskGetTickCount() - detectAct.delay >= (IntervalTime-ChargeTime)) 
;;;445    			{
;;;446    				bsp_AWSetPinVal(PinMap[detectAct.pinMapIndex%PIN_MAP_MAX][1], AW_0); //先开接收，充电
;;;447    				detectAct.delay = xTaskGetTickCount();
;;;448    				detectAct.action++;
;;;449    			}
;;;450    		}break;
;;;451    		
;;;452    		case 19:
;;;453    		{
;;;454    			if(xTaskGetTickCount() - detectAct.delay >= ChargeTime)
;;;455    			{
;;;456    				//bsp_AWSetPinVal(PinMap[detectAct.pinMapIndex%PIN_MAP_MAX][0], AW_0); //再开发送，读AD
;;;457    				bsp_DelayUS(TimeAfterOpen);
;;;458    				adcContrast[detectAct.pinMapIndex%PIN_MAP_MAX][0] = bsp_GetAdScanValue();//开灯读
;;;459    				bsp_AWSetPinVal(PinMap[detectAct.pinMapIndex%PIN_MAP_MAX][0], AW_1);//关发射
;;;460    				bsp_DelayUS(TimeAfterClose);
;;;461    				adcContrast[detectAct.pinMapIndex%PIN_MAP_MAX][1] = bsp_GetAdScanValue();//关灯读
;;;462    				bsp_AWSetPinVal(PinMap[detectAct.pinMapIndex%PIN_MAP_MAX][1], AW_1);//关接收
;;;463    				
;;;464    				adcRealTime[detectAct.pinMapIndex%PIN_MAP_MAX] = adcContrast[detectAct.action/2][1] >= Sunlight ? 0 : adcContrast[detectAct.action/2][0];//如果读到太阳光了就当没有检测到障碍物
;;;465    				adcIsSunlight[detectAct.pinMapIndex%PIN_MAP_MAX] = adcContrast[detectAct.action/2][1] >= Sunlight ? 1 : 0;//记录是否被当阳光挡住了
;;;466    				detectAct.pinMapIndex++;
;;;467    				
;;;468    				detectAct.delay = xTaskGetTickCount();
;;;469    				detectAct.action++;
;;;470    			}
;;;471    		}break;
;;;472    		
;;;473    		case 20:
;;;474    		{
;;;475    			if(xTaskGetTickCount() - detectAct.delay >= (IntervalTime-ChargeTime)) 
;;;476    			{
;;;477    				detectAct.action = 0 ;
;;;478    				detectAct.pinMapIndex = 0 ;
;;;479    			}
;;;480    		}break;
;;;481    		
;;;482    	}
;;;483    	
;;;484    	
;;;485    }
000008  bd70              POP      {r4-r6,pc}
                  |L2.10|
00000a  48fc              LDR      r0,|L2.1020|
00000c  7840              LDRB     r0,[r0,#1]            ;152  ; detectAct
00000e  2815              CMP      r0,#0x15              ;152
000010  d22d              BCS      |L2.110|
000012  e8dff010          TBH      [pc,r0,LSL #1]        ;152
000016  0015              DCW      0x0015
000018  002d00c9          DCW      0x002d,0x00c9
00001c  00e70183          DCW      0x00e7,0x0183
000020  01a10249          DCW      0x01a1,0x0249
000024  02670303          DCW      0x0267,0x0303
000028  032103bd          DCW      0x0321,0x03bd
00002c  03db0483          DCW      0x03db,0x0483
000030  04a1053d          DCW      0x04a1,0x053d
000034  055b0601          DCW      0x055b,0x0601
000038  061f06ae          DCW      0x061f,0x06ae
00003c  06cc075b          DCW      0x06cc,0x075b
000040  48ee              LDR      r0,|L2.1020|
000042  7a00              LDRB     r0,[r0,#8]            ;157  ; detectAct
000044  210a              MOVS     r1,#0xa               ;157
000046  fb90f2f1          SDIV     r2,r0,r1              ;157
00004a  fb010012          MLS      r0,r1,r2,r0           ;157
00004e  49ec              LDR      r1,|L2.1024|
000050  eb010040          ADD      r0,r1,r0,LSL #1       ;157
000054  7844              LDRB     r4,[r0,#1]            ;157
000056  2100              MOVS     r1,#0                 ;157
000058  4620              MOV      r0,r4                 ;157
00005a  f7fffffe          BL       bsp_AWSetPinVal
00005e  f7fffffe          BL       xTaskGetTickCount
000062  49e6              LDR      r1,|L2.1020|
000064  6048              STR      r0,[r1,#4]            ;158  ; detectAct
000066  4608              MOV      r0,r1                 ;159
000068  7840              LDRB     r0,[r0,#1]            ;159  ; detectAct
00006a  1c40              ADDS     r0,r0,#1              ;159
00006c  7048              STRB     r0,[r1,#1]            ;159
                  |L2.110|
00006e  e38e              B        |L2.1934|
000070  f7fffffe          BL       xTaskGetTickCount
000074  49e1              LDR      r1,|L2.1020|
000076  6849              LDR      r1,[r1,#4]            ;165  ; detectAct
000078  1a40              SUBS     r0,r0,r1              ;165
00007a  2803              CMP      r0,#3                 ;165
00007c  d37b              BCC      |L2.374|
00007e  48df              LDR      r0,|L2.1020|
000080  7a00              LDRB     r0,[r0,#8]            ;167  ; detectAct
000082  210a              MOVS     r1,#0xa               ;167
000084  fb90f2f1          SDIV     r2,r0,r1              ;167
000088  fb010012          MLS      r0,r1,r2,r0           ;167
00008c  49dc              LDR      r1,|L2.1024|
00008e  f8114010          LDRB     r4,[r1,r0,LSL #1]     ;167
000092  2100              MOVS     r1,#0                 ;167
000094  4620              MOV      r0,r4                 ;167
000096  f7fffffe          BL       bsp_AWSetPinVal
00009a  2078              MOVS     r0,#0x78              ;168
00009c  f7fffffe          BL       bsp_DelayUS
0000a0  f7fffffe          BL       bsp_GetAdScanValue
0000a4  49d5              LDR      r1,|L2.1020|
0000a6  7a09              LDRB     r1,[r1,#8]            ;169  ; detectAct
0000a8  220a              MOVS     r2,#0xa               ;169
0000aa  fb91f3f2          SDIV     r3,r1,r2              ;169
0000ae  fb021113          MLS      r1,r2,r3,r1           ;169
0000b2  4ad4              LDR      r2,|L2.1028|
0000b4  f8420031          STR      r0,[r2,r1,LSL #3]     ;169
0000b8  48d0              LDR      r0,|L2.1020|
0000ba  7a00              LDRB     r0,[r0,#8]            ;170  ; detectAct
0000bc  210a              MOVS     r1,#0xa               ;170
0000be  fb90f2f1          SDIV     r2,r0,r1              ;170
0000c2  fb010012          MLS      r0,r1,r2,r0           ;170
0000c6  49ce              LDR      r1,|L2.1024|
0000c8  f8114010          LDRB     r4,[r1,r0,LSL #1]     ;170
0000cc  2101              MOVS     r1,#1                 ;170
0000ce  4620              MOV      r0,r4                 ;170
0000d0  f7fffffe          BL       bsp_AWSetPinVal
0000d4  2014              MOVS     r0,#0x14              ;171
0000d6  f7fffffe          BL       bsp_DelayUS
0000da  f7fffffe          BL       bsp_GetAdScanValue
0000de  49c7              LDR      r1,|L2.1020|
0000e0  7a09              LDRB     r1,[r1,#8]            ;172  ; detectAct
0000e2  220a              MOVS     r2,#0xa               ;172
0000e4  fb91f3f2          SDIV     r3,r1,r2              ;172
0000e8  fb021113          MLS      r1,r2,r3,r1           ;172
0000ec  4ac5              LDR      r2,|L2.1028|
0000ee  eb0201c1          ADD      r1,r2,r1,LSL #3       ;172
0000f2  6048              STR      r0,[r1,#4]            ;172
0000f4  48c1              LDR      r0,|L2.1020|
0000f6  7a00              LDRB     r0,[r0,#8]            ;173  ; detectAct
0000f8  210a              MOVS     r1,#0xa               ;173
0000fa  fb90f2f1          SDIV     r2,r0,r1              ;173
0000fe  fb010012          MLS      r0,r1,r2,r0           ;173
000102  49bf              LDR      r1,|L2.1024|
000104  eb010040          ADD      r0,r1,r0,LSL #1       ;173
000108  7844              LDRB     r4,[r0,#1]            ;173
00010a  2101              MOVS     r1,#1                 ;173
00010c  4620              MOV      r0,r4                 ;173
00010e  f7fffffe          BL       bsp_AWSetPinVal
000112  49ba              LDR      r1,|L2.1020|
000114  784d              LDRB     r5,[r1,#1]            ;175  ; detectAct
000116  eb0571d5          ADD      r1,r5,r5,LSR #31      ;175
00011a  1049              ASRS     r1,r1,#1              ;175
00011c  4ab9              LDR      r2,|L2.1028|
00011e  eb0201c1          ADD      r1,r2,r1,LSL #3       ;175
000122  6848              LDR      r0,[r1,#4]            ;175
000124  f04f517e          MOV      r1,#0x3f800000        ;175
000128  f7fffffe          BL       __aeabi_cfrcmple
00012c  d801              BHI      |L2.306|
00012e  2000              MOVS     r0,#0                 ;175
000130  e007              B        |L2.322|
                  |L2.306|
000132  48b2              LDR      r0,|L2.1020|
000134  7844              LDRB     r4,[r0,#1]            ;175  ; detectAct
000136  eb0470d4          ADD      r0,r4,r4,LSR #31      ;175
00013a  1040              ASRS     r0,r0,#1              ;175
00013c  49b1              LDR      r1,|L2.1028|
00013e  f8510030          LDR      r0,[r1,r0,LSL #3]     ;175
                  |L2.322|
000142  49ae              LDR      r1,|L2.1020|
000144  7a09              LDRB     r1,[r1,#8]            ;175  ; detectAct
000146  220a              MOVS     r2,#0xa               ;175
000148  fb91f3f2          SDIV     r3,r1,r2              ;175
00014c  fb021113          MLS      r1,r2,r3,r1           ;175
000150  4aad              LDR      r2,|L2.1032|
000152  f8420021          STR      r0,[r2,r1,LSL #2]     ;175
000156  49a9              LDR      r1,|L2.1020|
000158  784c              LDRB     r4,[r1,#1]            ;176  ; detectAct
00015a  eb0471d4          ADD      r1,r4,r4,LSR #31      ;176
00015e  1049              ASRS     r1,r1,#1              ;176
000160  4aa8              LDR      r2,|L2.1028|
000162  eb0201c1          ADD      r1,r2,r1,LSL #3       ;176
000166  6848              LDR      r0,[r1,#4]            ;176
000168  f04f517e          MOV      r1,#0x3f800000        ;176
00016c  f7fffffe          BL       __aeabi_cfrcmple
000170  d802              BHI      |L2.376|
000172  2001              MOVS     r0,#1                 ;176
000174  e001              B        |L2.378|
                  |L2.374|
000176  e016              B        |L2.422|
                  |L2.376|
000178  2000              MOVS     r0,#0                 ;176
                  |L2.378|
00017a  49a0              LDR      r1,|L2.1020|
00017c  7a09              LDRB     r1,[r1,#8]            ;176  ; detectAct
00017e  220a              MOVS     r2,#0xa               ;176
000180  fb91f3f2          SDIV     r3,r1,r2              ;176
000184  fb021113          MLS      r1,r2,r3,r1           ;176
000188  4aa0              LDR      r2,|L2.1036|
00018a  5450              STRB     r0,[r2,r1]            ;176
00018c  489b              LDR      r0,|L2.1020|
00018e  7a00              LDRB     r0,[r0,#8]            ;177  ; detectAct
000190  1c40              ADDS     r0,r0,#1              ;177
000192  499a              LDR      r1,|L2.1020|
000194  7208              STRB     r0,[r1,#8]            ;177
000196  f7fffffe          BL       xTaskGetTickCount
00019a  4998              LDR      r1,|L2.1020|
00019c  6048              STR      r0,[r1,#4]            ;179  ; detectAct
00019e  4608              MOV      r0,r1                 ;180
0001a0  7840              LDRB     r0,[r0,#1]            ;180  ; detectAct
0001a2  1c40              ADDS     r0,r0,#1              ;180
0001a4  7048              STRB     r0,[r1,#1]            ;180
                  |L2.422|
0001a6  e762              B        |L2.110|
0001a8  f7fffffe          BL       xTaskGetTickCount
0001ac  4993              LDR      r1,|L2.1020|
0001ae  6849              LDR      r1,[r1,#4]            ;187  ; detectAct
0001b0  1a40              SUBS     r0,r0,r1              ;187
0001b2  d016              BEQ      |L2.482|
0001b4  4891              LDR      r0,|L2.1020|
0001b6  7a00              LDRB     r0,[r0,#8]            ;189  ; detectAct
0001b8  210a              MOVS     r1,#0xa               ;189
0001ba  fb90f2f1          SDIV     r2,r0,r1              ;189
0001be  fb010012          MLS      r0,r1,r2,r0           ;189
0001c2  498f              LDR      r1,|L2.1024|
0001c4  eb010040          ADD      r0,r1,r0,LSL #1       ;189
0001c8  7844              LDRB     r4,[r0,#1]            ;189
0001ca  2100              MOVS     r1,#0                 ;189
0001cc  4620              MOV      r0,r4                 ;189
0001ce  f7fffffe          BL       bsp_AWSetPinVal
0001d2  f7fffffe          BL       xTaskGetTickCount
0001d6  4989              LDR      r1,|L2.1020|
0001d8  6048              STR      r0,[r1,#4]            ;190  ; detectAct
0001da  4608              MOV      r0,r1                 ;191
0001dc  7840              LDRB     r0,[r0,#1]            ;191  ; detectAct
0001de  1c40              ADDS     r0,r0,#1              ;191
0001e0  7048              STRB     r0,[r1,#1]            ;191
                  |L2.482|
0001e2  e744              B        |L2.110|
0001e4  f7fffffe          BL       xTaskGetTickCount
0001e8  4984              LDR      r1,|L2.1020|
0001ea  6849              LDR      r1,[r1,#4]            ;197  ; detectAct
0001ec  1a40              SUBS     r0,r0,r1              ;197
0001ee  2803              CMP      r0,#3                 ;197
0001f0  d37b              BCC      |L2.746|
0001f2  4882              LDR      r0,|L2.1020|
0001f4  7a00              LDRB     r0,[r0,#8]            ;199  ; detectAct
0001f6  210a              MOVS     r1,#0xa               ;199
0001f8  fb90f2f1          SDIV     r2,r0,r1              ;199
0001fc  fb010012          MLS      r0,r1,r2,r0           ;199
000200  497f              LDR      r1,|L2.1024|
000202  f8114010          LDRB     r4,[r1,r0,LSL #1]     ;199
000206  2100              MOVS     r1,#0                 ;199
000208  4620              MOV      r0,r4                 ;199
00020a  f7fffffe          BL       bsp_AWSetPinVal
00020e  2078              MOVS     r0,#0x78              ;200
000210  f7fffffe          BL       bsp_DelayUS
000214  f7fffffe          BL       bsp_GetAdScanValue
000218  4978              LDR      r1,|L2.1020|
00021a  7a09              LDRB     r1,[r1,#8]            ;201  ; detectAct
00021c  220a              MOVS     r2,#0xa               ;201
00021e  fb91f3f2          SDIV     r3,r1,r2              ;201
000222  fb021113          MLS      r1,r2,r3,r1           ;201
000226  4a77              LDR      r2,|L2.1028|
000228  f8420031          STR      r0,[r2,r1,LSL #3]     ;201
00022c  4873              LDR      r0,|L2.1020|
00022e  7a00              LDRB     r0,[r0,#8]            ;202  ; detectAct
000230  210a              MOVS     r1,#0xa               ;202
000232  fb90f2f1          SDIV     r2,r0,r1              ;202
000236  fb010012          MLS      r0,r1,r2,r0           ;202
00023a  4971              LDR      r1,|L2.1024|
00023c  f8114010          LDRB     r4,[r1,r0,LSL #1]     ;202
000240  2101              MOVS     r1,#1                 ;202
000242  4620              MOV      r0,r4                 ;202
000244  f7fffffe          BL       bsp_AWSetPinVal
000248  2014              MOVS     r0,#0x14              ;203
00024a  f7fffffe          BL       bsp_DelayUS
00024e  f7fffffe          BL       bsp_GetAdScanValue
000252  496a              LDR      r1,|L2.1020|
000254  7a09              LDRB     r1,[r1,#8]            ;204  ; detectAct
000256  220a              MOVS     r2,#0xa               ;204
000258  fb91f3f2          SDIV     r3,r1,r2              ;204
00025c  fb021113          MLS      r1,r2,r3,r1           ;204
000260  4a68              LDR      r2,|L2.1028|
000262  eb0201c1          ADD      r1,r2,r1,LSL #3       ;204
000266  6048              STR      r0,[r1,#4]            ;204
000268  4864              LDR      r0,|L2.1020|
00026a  7a00              LDRB     r0,[r0,#8]            ;205  ; detectAct
00026c  210a              MOVS     r1,#0xa               ;205
00026e  fb90f2f1          SDIV     r2,r0,r1              ;205
000272  fb010012          MLS      r0,r1,r2,r0           ;205
000276  4962              LDR      r1,|L2.1024|
000278  eb010040          ADD      r0,r1,r0,LSL #1       ;205
00027c  7844              LDRB     r4,[r0,#1]            ;205
00027e  2101              MOVS     r1,#1                 ;205
000280  4620              MOV      r0,r4                 ;205
000282  f7fffffe          BL       bsp_AWSetPinVal
000286  495d              LDR      r1,|L2.1020|
000288  784d              LDRB     r5,[r1,#1]            ;207  ; detectAct
00028a  eb0571d5          ADD      r1,r5,r5,LSR #31      ;207
00028e  1049              ASRS     r1,r1,#1              ;207
000290  4a5c              LDR      r2,|L2.1028|
000292  eb0201c1          ADD      r1,r2,r1,LSL #3       ;207
000296  6848              LDR      r0,[r1,#4]            ;207
000298  f04f517e          MOV      r1,#0x3f800000        ;207
00029c  f7fffffe          BL       __aeabi_cfrcmple
0002a0  d801              BHI      |L2.678|
0002a2  2000              MOVS     r0,#0                 ;207
0002a4  e007              B        |L2.694|
                  |L2.678|
0002a6  4855              LDR      r0,|L2.1020|
0002a8  7844              LDRB     r4,[r0,#1]            ;207  ; detectAct
0002aa  eb0470d4          ADD      r0,r4,r4,LSR #31      ;207
0002ae  1040              ASRS     r0,r0,#1              ;207
0002b0  4954              LDR      r1,|L2.1028|
0002b2  f8510030          LDR      r0,[r1,r0,LSL #3]     ;207
                  |L2.694|
0002b6  4951              LDR      r1,|L2.1020|
0002b8  7a09              LDRB     r1,[r1,#8]            ;207  ; detectAct
0002ba  220a              MOVS     r2,#0xa               ;207
0002bc  fb91f3f2          SDIV     r3,r1,r2              ;207
0002c0  fb021113          MLS      r1,r2,r3,r1           ;207
0002c4  4a50              LDR      r2,|L2.1032|
0002c6  f8420021          STR      r0,[r2,r1,LSL #2]     ;207
0002ca  494c              LDR      r1,|L2.1020|
0002cc  784c              LDRB     r4,[r1,#1]            ;208  ; detectAct
0002ce  eb0471d4          ADD      r1,r4,r4,LSR #31      ;208
0002d2  1049              ASRS     r1,r1,#1              ;208
0002d4  4a4b              LDR      r2,|L2.1028|
0002d6  eb0201c1          ADD      r1,r2,r1,LSL #3       ;208
0002da  6848              LDR      r0,[r1,#4]            ;208
0002dc  f04f517e          MOV      r1,#0x3f800000        ;208
0002e0  f7fffffe          BL       __aeabi_cfrcmple
0002e4  d802              BHI      |L2.748|
0002e6  2001              MOVS     r0,#1                 ;208
0002e8  e001              B        |L2.750|
                  |L2.746|
0002ea  e016              B        |L2.794|
                  |L2.748|
0002ec  2000              MOVS     r0,#0                 ;208
                  |L2.750|
0002ee  4943              LDR      r1,|L2.1020|
0002f0  7a09              LDRB     r1,[r1,#8]            ;208  ; detectAct
0002f2  220a              MOVS     r2,#0xa               ;208
0002f4  fb91f3f2          SDIV     r3,r1,r2              ;208
0002f8  fb021113          MLS      r1,r2,r3,r1           ;208
0002fc  4a43              LDR      r2,|L2.1036|
0002fe  5450              STRB     r0,[r2,r1]            ;208
000300  483e              LDR      r0,|L2.1020|
000302  7a00              LDRB     r0,[r0,#8]            ;209  ; detectAct
000304  1c40              ADDS     r0,r0,#1              ;209
000306  493d              LDR      r1,|L2.1020|
000308  7208              STRB     r0,[r1,#8]            ;209
00030a  f7fffffe          BL       xTaskGetTickCount
00030e  493b              LDR      r1,|L2.1020|
000310  6048              STR      r0,[r1,#4]            ;211  ; detectAct
000312  4608              MOV      r0,r1                 ;212
000314  7840              LDRB     r0,[r0,#1]            ;212  ; detectAct
000316  1c40              ADDS     r0,r0,#1              ;212
000318  7048              STRB     r0,[r1,#1]            ;212
                  |L2.794|
00031a  e6a8              B        |L2.110|
00031c  f7fffffe          BL       xTaskGetTickCount
000320  4936              LDR      r1,|L2.1020|
000322  6849              LDR      r1,[r1,#4]            ;219  ; detectAct
000324  1a40              SUBS     r0,r0,r1              ;219
000326  d016              BEQ      |L2.854|
000328  4834              LDR      r0,|L2.1020|
00032a  7a00              LDRB     r0,[r0,#8]            ;221  ; detectAct
00032c  210a              MOVS     r1,#0xa               ;221
00032e  fb90f2f1          SDIV     r2,r0,r1              ;221
000332  fb010012          MLS      r0,r1,r2,r0           ;221
000336  4932              LDR      r1,|L2.1024|
000338  eb010040          ADD      r0,r1,r0,LSL #1       ;221
00033c  7844              LDRB     r4,[r0,#1]            ;221
00033e  2100              MOVS     r1,#0                 ;221
000340  4620              MOV      r0,r4                 ;221
000342  f7fffffe          BL       bsp_AWSetPinVal
000346  f7fffffe          BL       xTaskGetTickCount
00034a  492c              LDR      r1,|L2.1020|
00034c  6048              STR      r0,[r1,#4]            ;222  ; detectAct
00034e  4608              MOV      r0,r1                 ;223
000350  7840              LDRB     r0,[r0,#1]            ;223  ; detectAct
000352  1c40              ADDS     r0,r0,#1              ;223
000354  7048              STRB     r0,[r1,#1]            ;223
                  |L2.854|
000356  e68a              B        |L2.110|
000358  f7fffffe          BL       xTaskGetTickCount
00035c  4927              LDR      r1,|L2.1020|
00035e  6849              LDR      r1,[r1,#4]            ;229  ; detectAct
000360  1a40              SUBS     r0,r0,r1              ;229
000362  2803              CMP      r0,#3                 ;229
000364  d37d              BCC      |L2.1122|
000366  4825              LDR      r0,|L2.1020|
000368  7a00              LDRB     r0,[r0,#8]            ;231  ; detectAct
00036a  210a              MOVS     r1,#0xa               ;231
00036c  fb90f2f1          SDIV     r2,r0,r1              ;231
000370  fb010012          MLS      r0,r1,r2,r0           ;231
000374  4922              LDR      r1,|L2.1024|
000376  f8114010          LDRB     r4,[r1,r0,LSL #1]     ;231
00037a  2100              MOVS     r1,#0                 ;231
00037c  4620              MOV      r0,r4                 ;231
00037e  f7fffffe          BL       bsp_AWSetPinVal
000382  2078              MOVS     r0,#0x78              ;232
000384  f7fffffe          BL       bsp_DelayUS
000388  f7fffffe          BL       bsp_GetAdScanValue
00038c  491b              LDR      r1,|L2.1020|
00038e  7a09              LDRB     r1,[r1,#8]            ;233  ; detectAct
000390  220a              MOVS     r2,#0xa               ;233
000392  fb91f3f2          SDIV     r3,r1,r2              ;233
000396  fb021113          MLS      r1,r2,r3,r1           ;233
00039a  4a1a              LDR      r2,|L2.1028|
00039c  f8420031          STR      r0,[r2,r1,LSL #3]     ;233
0003a0  4816              LDR      r0,|L2.1020|
0003a2  7a00              LDRB     r0,[r0,#8]            ;234  ; detectAct
0003a4  210a              MOVS     r1,#0xa               ;234
0003a6  fb90f2f1          SDIV     r2,r0,r1              ;234
0003aa  fb010012          MLS      r0,r1,r2,r0           ;234
0003ae  4914              LDR      r1,|L2.1024|
0003b0  f8114010          LDRB     r4,[r1,r0,LSL #1]     ;234
0003b4  2101              MOVS     r1,#1                 ;234
0003b6  4620              MOV      r0,r4                 ;234
0003b8  f7fffffe          BL       bsp_AWSetPinVal
0003bc  2014              MOVS     r0,#0x14              ;235
0003be  f7fffffe          BL       bsp_DelayUS
0003c2  f7fffffe          BL       bsp_GetAdScanValue
0003c6  490d              LDR      r1,|L2.1020|
0003c8  7a09              LDRB     r1,[r1,#8]            ;236  ; detectAct
0003ca  220a              MOVS     r2,#0xa               ;236
0003cc  fb91f3f2          SDIV     r3,r1,r2              ;236
0003d0  fb021113          MLS      r1,r2,r3,r1           ;236
0003d4  4a0b              LDR      r2,|L2.1028|
0003d6  eb0201c1          ADD      r1,r2,r1,LSL #3       ;236
0003da  6048              STR      r0,[r1,#4]            ;236
0003dc  4807              LDR      r0,|L2.1020|
0003de  7a00              LDRB     r0,[r0,#8]            ;237  ; detectAct
0003e0  210a              MOVS     r1,#0xa               ;237
0003e2  fb90f2f1          SDIV     r2,r0,r1              ;237
0003e6  fb010012          MLS      r0,r1,r2,r0           ;237
0003ea  4905              LDR      r1,|L2.1024|
0003ec  eb010040          ADD      r0,r1,r0,LSL #1       ;237
0003f0  7844              LDRB     r4,[r0,#1]            ;237
0003f2  2101              MOVS     r1,#1                 ;237
0003f4  4620              MOV      r0,r4                 ;237
0003f6  f7fffffe          BL       bsp_AWSetPinVal
0003fa  e009              B        |L2.1040|
                  |L2.1020|
                          DCD      detectAct
                  |L2.1024|
                          DCD      PinMap
                  |L2.1028|
                          DCD      adcContrast
                  |L2.1032|
                          DCD      adcRealTime
                  |L2.1036|
                          DCD      adcIsSunlight
                  |L2.1040|
000410  49fe              LDR      r1,|L2.2060|
000412  784d              LDRB     r5,[r1,#1]            ;239  ; detectAct
000414  eb0571d5          ADD      r1,r5,r5,LSR #31      ;239
000418  1049              ASRS     r1,r1,#1              ;239
00041a  4afd              LDR      r2,|L2.2064|
00041c  eb0201c1          ADD      r1,r2,r1,LSL #3       ;239
000420  6848              LDR      r0,[r1,#4]            ;239
000422  f04f517e          MOV      r1,#0x3f800000        ;239
000426  f7fffffe          BL       __aeabi_cfrcmple
00042a  d801              BHI      |L2.1072|
00042c  2000              MOVS     r0,#0                 ;239
00042e  e007              B        |L2.1088|
                  |L2.1072|
000430  48f6              LDR      r0,|L2.2060|
000432  7844              LDRB     r4,[r0,#1]            ;239  ; detectAct
000434  eb0470d4          ADD      r0,r4,r4,LSR #31      ;239
000438  1040              ASRS     r0,r0,#1              ;239
00043a  49f5              LDR      r1,|L2.2064|
00043c  f8510030          LDR      r0,[r1,r0,LSL #3]     ;239
                  |L2.1088|
000440  49f2              LDR      r1,|L2.2060|
000442  7a09              LDRB     r1,[r1,#8]            ;239  ; detectAct
000444  220a              MOVS     r2,#0xa               ;239
000446  fb91f3f2          SDIV     r3,r1,r2              ;239
00044a  fb021113          MLS      r1,r2,r3,r1           ;239
00044e  4af1              LDR      r2,|L2.2068|
000450  f8420021          STR      r0,[r2,r1,LSL #2]     ;239
000454  49ed              LDR      r1,|L2.2060|
000456  784c              LDRB     r4,[r1,#1]            ;240  ; detectAct
000458  eb0471d4          ADD      r1,r4,r4,LSR #31      ;240
00045c  1049              ASRS     r1,r1,#1              ;240
00045e  4aec              LDR      r2,|L2.2064|
000460  e000              B        |L2.1124|
                  |L2.1122|
000462  e020              B        |L2.1190|
                  |L2.1124|
000464  eb0201c1          ADD      r1,r2,r1,LSL #3       ;240
000468  6848              LDR      r0,[r1,#4]            ;240
00046a  f04f517e          MOV      r1,#0x3f800000        ;240
00046e  f7fffffe          BL       __aeabi_cfrcmple
000472  d801              BHI      |L2.1144|
000474  2001              MOVS     r0,#1                 ;240
000476  e000              B        |L2.1146|
                  |L2.1144|
000478  2000              MOVS     r0,#0                 ;240
                  |L2.1146|
00047a  49e4              LDR      r1,|L2.2060|
00047c  7a09              LDRB     r1,[r1,#8]            ;240  ; detectAct
00047e  220a              MOVS     r2,#0xa               ;240
000480  fb91f3f2          SDIV     r3,r1,r2              ;240
000484  fb021113          MLS      r1,r2,r3,r1           ;240
000488  4ae3              LDR      r2,|L2.2072|
00048a  5450              STRB     r0,[r2,r1]            ;240
00048c  48df              LDR      r0,|L2.2060|
00048e  7a00              LDRB     r0,[r0,#8]            ;241  ; detectAct
000490  1c40              ADDS     r0,r0,#1              ;241
000492  49de              LDR      r1,|L2.2060|
000494  7208              STRB     r0,[r1,#8]            ;241
000496  f7fffffe          BL       xTaskGetTickCount
00049a  49dc              LDR      r1,|L2.2060|
00049c  6048              STR      r0,[r1,#4]            ;243  ; detectAct
00049e  4608              MOV      r0,r1                 ;244
0004a0  7840              LDRB     r0,[r0,#1]            ;244  ; detectAct
0004a2  1c40              ADDS     r0,r0,#1              ;244
0004a4  7048              STRB     r0,[r1,#1]            ;244
                  |L2.1190|
0004a6  e5e2              B        |L2.110|
0004a8  f7fffffe          BL       xTaskGetTickCount
0004ac  49d7              LDR      r1,|L2.2060|
0004ae  6849              LDR      r1,[r1,#4]            ;251  ; detectAct
0004b0  1a40              SUBS     r0,r0,r1              ;251
0004b2  d016              BEQ      |L2.1250|
0004b4  48d5              LDR      r0,|L2.2060|
0004b6  7a00              LDRB     r0,[r0,#8]            ;253  ; detectAct
0004b8  210a              MOVS     r1,#0xa               ;253
0004ba  fb90f2f1          SDIV     r2,r0,r1              ;253
0004be  fb010012          MLS      r0,r1,r2,r0           ;253
0004c2  49d6              LDR      r1,|L2.2076|
0004c4  eb010040          ADD      r0,r1,r0,LSL #1       ;253
0004c8  7844              LDRB     r4,[r0,#1]            ;253
0004ca  2100              MOVS     r1,#0                 ;253
0004cc  4620              MOV      r0,r4                 ;253
0004ce  f7fffffe          BL       bsp_AWSetPinVal
0004d2  f7fffffe          BL       xTaskGetTickCount
0004d6  49cd              LDR      r1,|L2.2060|
0004d8  6048              STR      r0,[r1,#4]            ;254  ; detectAct
0004da  4608              MOV      r0,r1                 ;255
0004dc  7840              LDRB     r0,[r0,#1]            ;255  ; detectAct
0004de  1c40              ADDS     r0,r0,#1              ;255
0004e0  7048              STRB     r0,[r1,#1]            ;255
                  |L2.1250|
0004e2  e5c4              B        |L2.110|
0004e4  f7fffffe          BL       xTaskGetTickCount
0004e8  49c8              LDR      r1,|L2.2060|
0004ea  6849              LDR      r1,[r1,#4]            ;261  ; detectAct
0004ec  1a40              SUBS     r0,r0,r1              ;261
0004ee  2803              CMP      r0,#3                 ;261
0004f0  d37b              BCC      |L2.1514|
0004f2  48c6              LDR      r0,|L2.2060|
0004f4  7a00              LDRB     r0,[r0,#8]            ;263  ; detectAct
0004f6  210a              MOVS     r1,#0xa               ;263
0004f8  fb90f2f1          SDIV     r2,r0,r1              ;263
0004fc  fb010012          MLS      r0,r1,r2,r0           ;263
000500  49c6              LDR      r1,|L2.2076|
000502  f8114010          LDRB     r4,[r1,r0,LSL #1]     ;263
000506  2100              MOVS     r1,#0                 ;263
000508  4620              MOV      r0,r4                 ;263
00050a  f7fffffe          BL       bsp_AWSetPinVal
00050e  2078              MOVS     r0,#0x78              ;264
000510  f7fffffe          BL       bsp_DelayUS
000514  f7fffffe          BL       bsp_GetAdScanValue
000518  49bc              LDR      r1,|L2.2060|
00051a  7a09              LDRB     r1,[r1,#8]            ;265  ; detectAct
00051c  220a              MOVS     r2,#0xa               ;265
00051e  fb91f3f2          SDIV     r3,r1,r2              ;265
000522  fb021113          MLS      r1,r2,r3,r1           ;265
000526  4aba              LDR      r2,|L2.2064|
000528  f8420031          STR      r0,[r2,r1,LSL #3]     ;265
00052c  48b7              LDR      r0,|L2.2060|
00052e  7a00              LDRB     r0,[r0,#8]            ;266  ; detectAct
000530  210a              MOVS     r1,#0xa               ;266
000532  fb90f2f1          SDIV     r2,r0,r1              ;266
000536  fb010012          MLS      r0,r1,r2,r0           ;266
00053a  49b8              LDR      r1,|L2.2076|
00053c  f8114010          LDRB     r4,[r1,r0,LSL #1]     ;266
000540  2101              MOVS     r1,#1                 ;266
000542  4620              MOV      r0,r4                 ;266
000544  f7fffffe          BL       bsp_AWSetPinVal
000548  2014              MOVS     r0,#0x14              ;267
00054a  f7fffffe          BL       bsp_DelayUS
00054e  f7fffffe          BL       bsp_GetAdScanValue
000552  49ae              LDR      r1,|L2.2060|
000554  7a09              LDRB     r1,[r1,#8]            ;268  ; detectAct
000556  220a              MOVS     r2,#0xa               ;268
000558  fb91f3f2          SDIV     r3,r1,r2              ;268
00055c  fb021113          MLS      r1,r2,r3,r1           ;268
000560  4aab              LDR      r2,|L2.2064|
000562  eb0201c1          ADD      r1,r2,r1,LSL #3       ;268
000566  6048              STR      r0,[r1,#4]            ;268
000568  48a8              LDR      r0,|L2.2060|
00056a  7a00              LDRB     r0,[r0,#8]            ;269  ; detectAct
00056c  210a              MOVS     r1,#0xa               ;269
00056e  fb90f2f1          SDIV     r2,r0,r1              ;269
000572  fb010012          MLS      r0,r1,r2,r0           ;269
000576  49a9              LDR      r1,|L2.2076|
000578  eb010040          ADD      r0,r1,r0,LSL #1       ;269
00057c  7844              LDRB     r4,[r0,#1]            ;269
00057e  2101              MOVS     r1,#1                 ;269
000580  4620              MOV      r0,r4                 ;269
000582  f7fffffe          BL       bsp_AWSetPinVal
000586  49a1              LDR      r1,|L2.2060|
000588  784d              LDRB     r5,[r1,#1]            ;271  ; detectAct
00058a  eb0571d5          ADD      r1,r5,r5,LSR #31      ;271
00058e  1049              ASRS     r1,r1,#1              ;271
000590  4a9f              LDR      r2,|L2.2064|
000592  eb0201c1          ADD      r1,r2,r1,LSL #3       ;271
000596  6848              LDR      r0,[r1,#4]            ;271
000598  f04f517e          MOV      r1,#0x3f800000        ;271
00059c  f7fffffe          BL       __aeabi_cfrcmple
0005a0  d801              BHI      |L2.1446|
0005a2  2000              MOVS     r0,#0                 ;271
0005a4  e007              B        |L2.1462|
                  |L2.1446|
0005a6  4899              LDR      r0,|L2.2060|
0005a8  7844              LDRB     r4,[r0,#1]            ;271  ; detectAct
0005aa  eb0470d4          ADD      r0,r4,r4,LSR #31      ;271
0005ae  1040              ASRS     r0,r0,#1              ;271
0005b0  4997              LDR      r1,|L2.2064|
0005b2  f8510030          LDR      r0,[r1,r0,LSL #3]     ;271
                  |L2.1462|
0005b6  4995              LDR      r1,|L2.2060|
0005b8  7a09              LDRB     r1,[r1,#8]            ;271  ; detectAct
0005ba  220a              MOVS     r2,#0xa               ;271
0005bc  fb91f3f2          SDIV     r3,r1,r2              ;271
0005c0  fb021113          MLS      r1,r2,r3,r1           ;271
0005c4  4a93              LDR      r2,|L2.2068|
0005c6  f8420021          STR      r0,[r2,r1,LSL #2]     ;271
0005ca  4990              LDR      r1,|L2.2060|
0005cc  784c              LDRB     r4,[r1,#1]            ;272  ; detectAct
0005ce  eb0471d4          ADD      r1,r4,r4,LSR #31      ;272
0005d2  1049              ASRS     r1,r1,#1              ;272
0005d4  4a8e              LDR      r2,|L2.2064|
0005d6  eb0201c1          ADD      r1,r2,r1,LSL #3       ;272
0005da  6848              LDR      r0,[r1,#4]            ;272
0005dc  f04f517e          MOV      r1,#0x3f800000        ;272
0005e0  f7fffffe          BL       __aeabi_cfrcmple
0005e4  d802              BHI      |L2.1516|
0005e6  2001              MOVS     r0,#1                 ;272
0005e8  e001              B        |L2.1518|
                  |L2.1514|
0005ea  e016              B        |L2.1562|
                  |L2.1516|
0005ec  2000              MOVS     r0,#0                 ;272
                  |L2.1518|
0005ee  4987              LDR      r1,|L2.2060|
0005f0  7a09              LDRB     r1,[r1,#8]            ;272  ; detectAct
0005f2  220a              MOVS     r2,#0xa               ;272
0005f4  fb91f3f2          SDIV     r3,r1,r2              ;272
0005f8  fb021113          MLS      r1,r2,r3,r1           ;272
0005fc  4a86              LDR      r2,|L2.2072|
0005fe  5450              STRB     r0,[r2,r1]            ;272
000600  4882              LDR      r0,|L2.2060|
000602  7a00              LDRB     r0,[r0,#8]            ;273  ; detectAct
000604  1c40              ADDS     r0,r0,#1              ;273
000606  4981              LDR      r1,|L2.2060|
000608  7208              STRB     r0,[r1,#8]            ;273
00060a  f7fffffe          BL       xTaskGetTickCount
00060e  497f              LDR      r1,|L2.2060|
000610  6048              STR      r0,[r1,#4]            ;275  ; detectAct
000612  4608              MOV      r0,r1                 ;276
000614  7840              LDRB     r0,[r0,#1]            ;276  ; detectAct
000616  1c40              ADDS     r0,r0,#1              ;276
000618  7048              STRB     r0,[r1,#1]            ;276
                  |L2.1562|
00061a  e528              B        |L2.110|
00061c  f7fffffe          BL       xTaskGetTickCount
000620  497a              LDR      r1,|L2.2060|
000622  6849              LDR      r1,[r1,#4]            ;283  ; detectAct
000624  1a40              SUBS     r0,r0,r1              ;283
000626  d016              BEQ      |L2.1622|
000628  4878              LDR      r0,|L2.2060|
00062a  7a00              LDRB     r0,[r0,#8]            ;285  ; detectAct
00062c  210a              MOVS     r1,#0xa               ;285
00062e  fb90f2f1          SDIV     r2,r0,r1              ;285
000632  fb010012          MLS      r0,r1,r2,r0           ;285
000636  4979              LDR      r1,|L2.2076|
000638  eb010040          ADD      r0,r1,r0,LSL #1       ;285
00063c  7844              LDRB     r4,[r0,#1]            ;285
00063e  2100              MOVS     r1,#0                 ;285
000640  4620              MOV      r0,r4                 ;285
000642  f7fffffe          BL       bsp_AWSetPinVal
000646  f7fffffe          BL       xTaskGetTickCount
00064a  4970              LDR      r1,|L2.2060|
00064c  6048              STR      r0,[r1,#4]            ;286  ; detectAct
00064e  4608              MOV      r0,r1                 ;287
000650  7840              LDRB     r0,[r0,#1]            ;287  ; detectAct
000652  1c40              ADDS     r0,r0,#1              ;287
000654  7048              STRB     r0,[r1,#1]            ;287
                  |L2.1622|
000656  e50a              B        |L2.110|
000658  f7fffffe          BL       xTaskGetTickCount
00065c  496b              LDR      r1,|L2.2060|
00065e  6849              LDR      r1,[r1,#4]            ;293  ; detectAct
000660  1a40              SUBS     r0,r0,r1              ;293
000662  2803              CMP      r0,#3                 ;293
000664  d37b              BCC      |L2.1886|
000666  4869              LDR      r0,|L2.2060|
000668  7a00              LDRB     r0,[r0,#8]            ;295  ; detectAct
00066a  210a              MOVS     r1,#0xa               ;295
00066c  fb90f2f1          SDIV     r2,r0,r1              ;295
000670  fb010012          MLS      r0,r1,r2,r0           ;295
000674  4969              LDR      r1,|L2.2076|
000676  f8114010          LDRB     r4,[r1,r0,LSL #1]     ;295
00067a  2100              MOVS     r1,#0                 ;295
00067c  4620              MOV      r0,r4                 ;295
00067e  f7fffffe          BL       bsp_AWSetPinVal
000682  2078              MOVS     r0,#0x78              ;296
000684  f7fffffe          BL       bsp_DelayUS
000688  f7fffffe          BL       bsp_GetAdScanValue
00068c  495f              LDR      r1,|L2.2060|
00068e  7a09              LDRB     r1,[r1,#8]            ;297  ; detectAct
000690  220a              MOVS     r2,#0xa               ;297
000692  fb91f3f2          SDIV     r3,r1,r2              ;297
000696  fb021113          MLS      r1,r2,r3,r1           ;297
00069a  4a5d              LDR      r2,|L2.2064|
00069c  f8420031          STR      r0,[r2,r1,LSL #3]     ;297
0006a0  485a              LDR      r0,|L2.2060|
0006a2  7a00              LDRB     r0,[r0,#8]            ;298  ; detectAct
0006a4  210a              MOVS     r1,#0xa               ;298
0006a6  fb90f2f1          SDIV     r2,r0,r1              ;298
0006aa  fb010012          MLS      r0,r1,r2,r0           ;298
0006ae  495b              LDR      r1,|L2.2076|
0006b0  f8114010          LDRB     r4,[r1,r0,LSL #1]     ;298
0006b4  2101              MOVS     r1,#1                 ;298
0006b6  4620              MOV      r0,r4                 ;298
0006b8  f7fffffe          BL       bsp_AWSetPinVal
0006bc  2014              MOVS     r0,#0x14              ;299
0006be  f7fffffe          BL       bsp_DelayUS
0006c2  f7fffffe          BL       bsp_GetAdScanValue
0006c6  4951              LDR      r1,|L2.2060|
0006c8  7a09              LDRB     r1,[r1,#8]            ;300  ; detectAct
0006ca  220a              MOVS     r2,#0xa               ;300
0006cc  fb91f3f2          SDIV     r3,r1,r2              ;300
0006d0  fb021113          MLS      r1,r2,r3,r1           ;300
0006d4  4a4e              LDR      r2,|L2.2064|
0006d6  eb0201c1          ADD      r1,r2,r1,LSL #3       ;300
0006da  6048              STR      r0,[r1,#4]            ;300
0006dc  484b              LDR      r0,|L2.2060|
0006de  7a00              LDRB     r0,[r0,#8]            ;301  ; detectAct
0006e0  210a              MOVS     r1,#0xa               ;301
0006e2  fb90f2f1          SDIV     r2,r0,r1              ;301
0006e6  fb010012          MLS      r0,r1,r2,r0           ;301
0006ea  494c              LDR      r1,|L2.2076|
0006ec  eb010040          ADD      r0,r1,r0,LSL #1       ;301
0006f0  7844              LDRB     r4,[r0,#1]            ;301
0006f2  2101              MOVS     r1,#1                 ;301
0006f4  4620              MOV      r0,r4                 ;301
0006f6  f7fffffe          BL       bsp_AWSetPinVal
0006fa  4944              LDR      r1,|L2.2060|
0006fc  784d              LDRB     r5,[r1,#1]            ;303  ; detectAct
0006fe  eb0571d5          ADD      r1,r5,r5,LSR #31      ;303
000702  1049              ASRS     r1,r1,#1              ;303
000704  4a42              LDR      r2,|L2.2064|
000706  eb0201c1          ADD      r1,r2,r1,LSL #3       ;303
00070a  6848              LDR      r0,[r1,#4]            ;303
00070c  f04f517e          MOV      r1,#0x3f800000        ;303
000710  f7fffffe          BL       __aeabi_cfrcmple
000714  d801              BHI      |L2.1818|
000716  2000              MOVS     r0,#0                 ;303
000718  e007              B        |L2.1834|
                  |L2.1818|
00071a  483c              LDR      r0,|L2.2060|
00071c  7844              LDRB     r4,[r0,#1]            ;303  ; detectAct
00071e  eb0470d4          ADD      r0,r4,r4,LSR #31      ;303
000722  1040              ASRS     r0,r0,#1              ;303
000724  493a              LDR      r1,|L2.2064|
000726  f8510030          LDR      r0,[r1,r0,LSL #3]     ;303
                  |L2.1834|
00072a  4938              LDR      r1,|L2.2060|
00072c  7a09              LDRB     r1,[r1,#8]            ;303  ; detectAct
00072e  220a              MOVS     r2,#0xa               ;303
000730  fb91f3f2          SDIV     r3,r1,r2              ;303
000734  fb021113          MLS      r1,r2,r3,r1           ;303
000738  4a36              LDR      r2,|L2.2068|
00073a  f8420021          STR      r0,[r2,r1,LSL #2]     ;303
00073e  4933              LDR      r1,|L2.2060|
000740  784c              LDRB     r4,[r1,#1]            ;304  ; detectAct
000742  eb0471d4          ADD      r1,r4,r4,LSR #31      ;304
000746  1049              ASRS     r1,r1,#1              ;304
000748  4a31              LDR      r2,|L2.2064|
00074a  eb0201c1          ADD      r1,r2,r1,LSL #3       ;304
00074e  6848              LDR      r0,[r1,#4]            ;304
000750  f04f517e          MOV      r1,#0x3f800000        ;304
000754  f7fffffe          BL       __aeabi_cfrcmple
000758  d802              BHI      |L2.1888|
00075a  2001              MOVS     r0,#1                 ;304
00075c  e001              B        |L2.1890|
                  |L2.1886|
00075e  e016              B        |L2.1934|
                  |L2.1888|
000760  2000              MOVS     r0,#0                 ;304
                  |L2.1890|
000762  492a              LDR      r1,|L2.2060|
000764  7a09              LDRB     r1,[r1,#8]            ;304  ; detectAct
000766  220a              MOVS     r2,#0xa               ;304
000768  fb91f3f2          SDIV     r3,r1,r2              ;304
00076c  fb021113          MLS      r1,r2,r3,r1           ;304
000770  4a29              LDR      r2,|L2.2072|
000772  5450              STRB     r0,[r2,r1]            ;304
000774  4825              LDR      r0,|L2.2060|
000776  7a00              LDRB     r0,[r0,#8]            ;305  ; detectAct
000778  1c40              ADDS     r0,r0,#1              ;305
00077a  4924              LDR      r1,|L2.2060|
00077c  7208              STRB     r0,[r1,#8]            ;305
00077e  f7fffffe          BL       xTaskGetTickCount
000782  4922              LDR      r1,|L2.2060|
000784  6048              STR      r0,[r1,#4]            ;307  ; detectAct
000786  4608              MOV      r0,r1                 ;308
000788  7840              LDRB     r0,[r0,#1]            ;308  ; detectAct
00078a  1c40              ADDS     r0,r0,#1              ;308
00078c  7048              STRB     r0,[r1,#1]            ;308
                  |L2.1934|
00078e  e3a8              B        |L2.3810|
000790  f7fffffe          BL       xTaskGetTickCount
000794  491d              LDR      r1,|L2.2060|
000796  6849              LDR      r1,[r1,#4]            ;315  ; detectAct
000798  1a40              SUBS     r0,r0,r1              ;315
00079a  d016              BEQ      |L2.1994|
00079c  481b              LDR      r0,|L2.2060|
00079e  7a00              LDRB     r0,[r0,#8]            ;317  ; detectAct
0007a0  210a              MOVS     r1,#0xa               ;317
0007a2  fb90f2f1          SDIV     r2,r0,r1              ;317
0007a6  fb010012          MLS      r0,r1,r2,r0           ;317
0007aa  491c              LDR      r1,|L2.2076|
0007ac  eb010040          ADD      r0,r1,r0,LSL #1       ;317
0007b0  7844              LDRB     r4,[r0,#1]            ;317
0007b2  2100              MOVS     r1,#0                 ;317
0007b4  4620              MOV      r0,r4                 ;317
0007b6  f7fffffe          BL       bsp_AWSetPinVal
0007ba  f7fffffe          BL       xTaskGetTickCount
0007be  4913              LDR      r1,|L2.2060|
0007c0  6048              STR      r0,[r1,#4]            ;318  ; detectAct
0007c2  4608              MOV      r0,r1                 ;319
0007c4  7840              LDRB     r0,[r0,#1]            ;319  ; detectAct
0007c6  1c40              ADDS     r0,r0,#1              ;319
0007c8  7048              STRB     r0,[r1,#1]            ;319
                  |L2.1994|
0007ca  e38a              B        |L2.3810|
0007cc  f7fffffe          BL       xTaskGetTickCount
0007d0  490e              LDR      r1,|L2.2060|
0007d2  6849              LDR      r1,[r1,#4]            ;325  ; detectAct
0007d4  1a40              SUBS     r0,r0,r1              ;325
0007d6  2803              CMP      r0,#3                 ;325
0007d8  d37d              BCC      |L2.2262|
0007da  480c              LDR      r0,|L2.2060|
0007dc  7a00              LDRB     r0,[r0,#8]            ;327  ; detectAct
0007de  210a              MOVS     r1,#0xa               ;327
0007e0  fb90f2f1          SDIV     r2,r0,r1              ;327
0007e4  fb010012          MLS      r0,r1,r2,r0           ;327
0007e8  490c              LDR      r1,|L2.2076|
0007ea  f8114010          LDRB     r4,[r1,r0,LSL #1]     ;327
0007ee  2100              MOVS     r1,#0                 ;327
0007f0  4620              MOV      r0,r4                 ;327
0007f2  f7fffffe          BL       bsp_AWSetPinVal
0007f6  2078              MOVS     r0,#0x78              ;328
0007f8  f7fffffe          BL       bsp_DelayUS
0007fc  f7fffffe          BL       bsp_GetAdScanValue
000800  4902              LDR      r1,|L2.2060|
000802  7a09              LDRB     r1,[r1,#8]            ;329  ; detectAct
000804  220a              MOVS     r2,#0xa               ;329
000806  fb91f3f2          SDIV     r3,r1,r2              ;329
00080a  e009              B        |L2.2080|
                  |L2.2060|
                          DCD      detectAct
                  |L2.2064|
                          DCD      adcContrast
                  |L2.2068|
                          DCD      adcRealTime
                  |L2.2072|
                          DCD      adcIsSunlight
                  |L2.2076|
                          DCD      PinMap
                  |L2.2080|
000820  fb021113          MLS      r1,r2,r3,r1           ;329
000824  4af7              LDR      r2,|L2.3076|
000826  f8420031          STR      r0,[r2,r1,LSL #3]     ;329
00082a  48f7              LDR      r0,|L2.3080|
00082c  7a00              LDRB     r0,[r0,#8]            ;330  ; detectAct
00082e  210a              MOVS     r1,#0xa               ;330
000830  fb90f2f1          SDIV     r2,r0,r1              ;330
000834  fb010012          MLS      r0,r1,r2,r0           ;330
000838  49f4              LDR      r1,|L2.3084|
00083a  f8114010          LDRB     r4,[r1,r0,LSL #1]     ;330
00083e  2101              MOVS     r1,#1                 ;330
000840  4620              MOV      r0,r4                 ;330
000842  f7fffffe          BL       bsp_AWSetPinVal
000846  2014              MOVS     r0,#0x14              ;331
000848  f7fffffe          BL       bsp_DelayUS
00084c  f7fffffe          BL       bsp_GetAdScanValue
000850  49ed              LDR      r1,|L2.3080|
000852  7a09              LDRB     r1,[r1,#8]            ;332  ; detectAct
000854  220a              MOVS     r2,#0xa               ;332
000856  fb91f3f2          SDIV     r3,r1,r2              ;332
00085a  fb021113          MLS      r1,r2,r3,r1           ;332
00085e  4ae9              LDR      r2,|L2.3076|
000860  eb0201c1          ADD      r1,r2,r1,LSL #3       ;332
000864  6048              STR      r0,[r1,#4]            ;332
000866  48e8              LDR      r0,|L2.3080|
000868  7a00              LDRB     r0,[r0,#8]            ;333  ; detectAct
00086a  210a              MOVS     r1,#0xa               ;333
00086c  fb90f2f1          SDIV     r2,r0,r1              ;333
000870  fb010012          MLS      r0,r1,r2,r0           ;333
000874  49e5              LDR      r1,|L2.3084|
000876  eb010040          ADD      r0,r1,r0,LSL #1       ;333
00087a  7844              LDRB     r4,[r0,#1]            ;333
00087c  2101              MOVS     r1,#1                 ;333
00087e  4620              MOV      r0,r4                 ;333
000880  f7fffffe          BL       bsp_AWSetPinVal
000884  49e0              LDR      r1,|L2.3080|
000886  784d              LDRB     r5,[r1,#1]            ;335  ; detectAct
000888  eb0571d5          ADD      r1,r5,r5,LSR #31      ;335
00088c  1049              ASRS     r1,r1,#1              ;335
00088e  4add              LDR      r2,|L2.3076|
000890  eb0201c1          ADD      r1,r2,r1,LSL #3       ;335
000894  6848              LDR      r0,[r1,#4]            ;335
000896  f04f517e          MOV      r1,#0x3f800000        ;335
00089a  f7fffffe          BL       __aeabi_cfrcmple
00089e  d801              BHI      |L2.2212|
0008a0  2000              MOVS     r0,#0                 ;335
0008a2  e007              B        |L2.2228|
                  |L2.2212|
0008a4  48d8              LDR      r0,|L2.3080|
0008a6  7844              LDRB     r4,[r0,#1]            ;335  ; detectAct
0008a8  eb0470d4          ADD      r0,r4,r4,LSR #31      ;335
0008ac  1040              ASRS     r0,r0,#1              ;335
0008ae  49d5              LDR      r1,|L2.3076|
0008b0  f8510030          LDR      r0,[r1,r0,LSL #3]     ;335
                  |L2.2228|
0008b4  49d4              LDR      r1,|L2.3080|
0008b6  7a09              LDRB     r1,[r1,#8]            ;335  ; detectAct
0008b8  220a              MOVS     r2,#0xa               ;335
0008ba  fb91f3f2          SDIV     r3,r1,r2              ;335
0008be  fb021113          MLS      r1,r2,r3,r1           ;335
0008c2  4ad3              LDR      r2,|L2.3088|
0008c4  f8420021          STR      r0,[r2,r1,LSL #2]     ;335
0008c8  49cf              LDR      r1,|L2.3080|
0008ca  784c              LDRB     r4,[r1,#1]            ;336  ; detectAct
0008cc  eb0471d4          ADD      r1,r4,r4,LSR #31      ;336
0008d0  1049              ASRS     r1,r1,#1              ;336
0008d2  4acc              LDR      r2,|L2.3076|
0008d4  e000              B        |L2.2264|
                  |L2.2262|
0008d6  e020              B        |L2.2330|
                  |L2.2264|
0008d8  eb0201c1          ADD      r1,r2,r1,LSL #3       ;336
0008dc  6848              LDR      r0,[r1,#4]            ;336
0008de  f04f517e          MOV      r1,#0x3f800000        ;336
0008e2  f7fffffe          BL       __aeabi_cfrcmple
0008e6  d801              BHI      |L2.2284|
0008e8  2001              MOVS     r0,#1                 ;336
0008ea  e000              B        |L2.2286|
                  |L2.2284|
0008ec  2000              MOVS     r0,#0                 ;336
                  |L2.2286|
0008ee  49c6              LDR      r1,|L2.3080|
0008f0  7a09              LDRB     r1,[r1,#8]            ;336  ; detectAct
0008f2  220a              MOVS     r2,#0xa               ;336
0008f4  fb91f3f2          SDIV     r3,r1,r2              ;336
0008f8  fb021113          MLS      r1,r2,r3,r1           ;336
0008fc  4ac5              LDR      r2,|L2.3092|
0008fe  5450              STRB     r0,[r2,r1]            ;336
000900  48c1              LDR      r0,|L2.3080|
000902  7a00              LDRB     r0,[r0,#8]            ;337  ; detectAct
000904  1c40              ADDS     r0,r0,#1              ;337
000906  49c0              LDR      r1,|L2.3080|
000908  7208              STRB     r0,[r1,#8]            ;337
00090a  f7fffffe          BL       xTaskGetTickCount
00090e  49be              LDR      r1,|L2.3080|
000910  6048              STR      r0,[r1,#4]            ;339  ; detectAct
000912  4608              MOV      r0,r1                 ;340
000914  7840              LDRB     r0,[r0,#1]            ;340  ; detectAct
000916  1c40              ADDS     r0,r0,#1              ;340
000918  7048              STRB     r0,[r1,#1]            ;340
                  |L2.2330|
00091a  e2e2              B        |L2.3810|
00091c  f7fffffe          BL       xTaskGetTickCount
000920  49b9              LDR      r1,|L2.3080|
000922  6849              LDR      r1,[r1,#4]            ;347  ; detectAct
000924  1a40              SUBS     r0,r0,r1              ;347
000926  d016              BEQ      |L2.2390|
000928  48b7              LDR      r0,|L2.3080|
00092a  7a00              LDRB     r0,[r0,#8]            ;349  ; detectAct
00092c  210a              MOVS     r1,#0xa               ;349
00092e  fb90f2f1          SDIV     r2,r0,r1              ;349
000932  fb010012          MLS      r0,r1,r2,r0           ;349
000936  49b5              LDR      r1,|L2.3084|
000938  eb010040          ADD      r0,r1,r0,LSL #1       ;349
00093c  7844              LDRB     r4,[r0,#1]            ;349
00093e  2100              MOVS     r1,#0                 ;349
000940  4620              MOV      r0,r4                 ;349
000942  f7fffffe          BL       bsp_AWSetPinVal
000946  f7fffffe          BL       xTaskGetTickCount
00094a  49af              LDR      r1,|L2.3080|
00094c  6048              STR      r0,[r1,#4]            ;350  ; detectAct
00094e  4608              MOV      r0,r1                 ;351
000950  7840              LDRB     r0,[r0,#1]            ;351  ; detectAct
000952  1c40              ADDS     r0,r0,#1              ;351
000954  7048              STRB     r0,[r1,#1]            ;351
                  |L2.2390|
000956  e2c4              B        |L2.3810|
000958  f7fffffe          BL       xTaskGetTickCount
00095c  49aa              LDR      r1,|L2.3080|
00095e  6849              LDR      r1,[r1,#4]            ;357  ; detectAct
000960  1a40              SUBS     r0,r0,r1              ;357
000962  2803              CMP      r0,#3                 ;357
000964  d37b              BCC      |L2.2654|
000966  48a8              LDR      r0,|L2.3080|
000968  7a00              LDRB     r0,[r0,#8]            ;359  ; detectAct
00096a  210a              MOVS     r1,#0xa               ;359
00096c  fb90f2f1          SDIV     r2,r0,r1              ;359
000970  fb010012          MLS      r0,r1,r2,r0           ;359
000974  49a5              LDR      r1,|L2.3084|
000976  f8114010          LDRB     r4,[r1,r0,LSL #1]     ;359
00097a  2100              MOVS     r1,#0                 ;359
00097c  4620              MOV      r0,r4                 ;359
00097e  f7fffffe          BL       bsp_AWSetPinVal
000982  2078              MOVS     r0,#0x78              ;360
000984  f7fffffe          BL       bsp_DelayUS
000988  f7fffffe          BL       bsp_GetAdScanValue
00098c  499e              LDR      r1,|L2.3080|
00098e  7a09              LDRB     r1,[r1,#8]            ;361  ; detectAct
000990  220a              MOVS     r2,#0xa               ;361
000992  fb91f3f2          SDIV     r3,r1,r2              ;361
000996  fb021113          MLS      r1,r2,r3,r1           ;361
00099a  4a9a              LDR      r2,|L2.3076|
00099c  f8420031          STR      r0,[r2,r1,LSL #3]     ;361
0009a0  4899              LDR      r0,|L2.3080|
0009a2  7a00              LDRB     r0,[r0,#8]            ;362  ; detectAct
0009a4  210a              MOVS     r1,#0xa               ;362
0009a6  fb90f2f1          SDIV     r2,r0,r1              ;362
0009aa  fb010012          MLS      r0,r1,r2,r0           ;362
0009ae  4997              LDR      r1,|L2.3084|
0009b0  f8114010          LDRB     r4,[r1,r0,LSL #1]     ;362
0009b4  2101              MOVS     r1,#1                 ;362
0009b6  4620              MOV      r0,r4                 ;362
0009b8  f7fffffe          BL       bsp_AWSetPinVal
0009bc  2014              MOVS     r0,#0x14              ;363
0009be  f7fffffe          BL       bsp_DelayUS
0009c2  f7fffffe          BL       bsp_GetAdScanValue
0009c6  4990              LDR      r1,|L2.3080|
0009c8  7a09              LDRB     r1,[r1,#8]            ;364  ; detectAct
0009ca  220a              MOVS     r2,#0xa               ;364
0009cc  fb91f3f2          SDIV     r3,r1,r2              ;364
0009d0  fb021113          MLS      r1,r2,r3,r1           ;364
0009d4  4a8b              LDR      r2,|L2.3076|
0009d6  eb0201c1          ADD      r1,r2,r1,LSL #3       ;364
0009da  6048              STR      r0,[r1,#4]            ;364
0009dc  488a              LDR      r0,|L2.3080|
0009de  7a00              LDRB     r0,[r0,#8]            ;365  ; detectAct
0009e0  210a              MOVS     r1,#0xa               ;365
0009e2  fb90f2f1          SDIV     r2,r0,r1              ;365
0009e6  fb010012          MLS      r0,r1,r2,r0           ;365
0009ea  4988              LDR      r1,|L2.3084|
0009ec  eb010040          ADD      r0,r1,r0,LSL #1       ;365
0009f0  7844              LDRB     r4,[r0,#1]            ;365
0009f2  2101              MOVS     r1,#1                 ;365
0009f4  4620              MOV      r0,r4                 ;365
0009f6  f7fffffe          BL       bsp_AWSetPinVal
0009fa  4983              LDR      r1,|L2.3080|
0009fc  784d              LDRB     r5,[r1,#1]            ;367  ; detectAct
0009fe  eb0571d5          ADD      r1,r5,r5,LSR #31      ;367
000a02  1049              ASRS     r1,r1,#1              ;367
000a04  4a7f              LDR      r2,|L2.3076|
000a06  eb0201c1          ADD      r1,r2,r1,LSL #3       ;367
000a0a  6848              LDR      r0,[r1,#4]            ;367
000a0c  f04f517e          MOV      r1,#0x3f800000        ;367
000a10  f7fffffe          BL       __aeabi_cfrcmple
000a14  d801              BHI      |L2.2586|
000a16  2000              MOVS     r0,#0                 ;367
000a18  e007              B        |L2.2602|
                  |L2.2586|
000a1a  487b              LDR      r0,|L2.3080|
000a1c  7844              LDRB     r4,[r0,#1]            ;367  ; detectAct
000a1e  eb0470d4          ADD      r0,r4,r4,LSR #31      ;367
000a22  1040              ASRS     r0,r0,#1              ;367
000a24  4977              LDR      r1,|L2.3076|
000a26  f8510030          LDR      r0,[r1,r0,LSL #3]     ;367
                  |L2.2602|
000a2a  4977              LDR      r1,|L2.3080|
000a2c  7a09              LDRB     r1,[r1,#8]            ;367  ; detectAct
000a2e  220a              MOVS     r2,#0xa               ;367
000a30  fb91f3f2          SDIV     r3,r1,r2              ;367
000a34  fb021113          MLS      r1,r2,r3,r1           ;367
000a38  4a75              LDR      r2,|L2.3088|
000a3a  f8420021          STR      r0,[r2,r1,LSL #2]     ;367
000a3e  4972              LDR      r1,|L2.3080|
000a40  784c              LDRB     r4,[r1,#1]            ;368  ; detectAct
000a42  eb0471d4          ADD      r1,r4,r4,LSR #31      ;368
000a46  1049              ASRS     r1,r1,#1              ;368
000a48  4a6e              LDR      r2,|L2.3076|
000a4a  eb0201c1          ADD      r1,r2,r1,LSL #3       ;368
000a4e  6848              LDR      r0,[r1,#4]            ;368
000a50  f04f517e          MOV      r1,#0x3f800000        ;368
000a54  f7fffffe          BL       __aeabi_cfrcmple
000a58  d802              BHI      |L2.2656|
000a5a  2001              MOVS     r0,#1                 ;368
000a5c  e001              B        |L2.2658|
                  |L2.2654|
000a5e  e016              B        |L2.2702|
                  |L2.2656|
000a60  2000              MOVS     r0,#0                 ;368
                  |L2.2658|
000a62  4969              LDR      r1,|L2.3080|
000a64  7a09              LDRB     r1,[r1,#8]            ;368  ; detectAct
000a66  220a              MOVS     r2,#0xa               ;368
000a68  fb91f3f2          SDIV     r3,r1,r2              ;368
000a6c  fb021113          MLS      r1,r2,r3,r1           ;368
000a70  4a68              LDR      r2,|L2.3092|
000a72  5450              STRB     r0,[r2,r1]            ;368
000a74  4864              LDR      r0,|L2.3080|
000a76  7a00              LDRB     r0,[r0,#8]            ;369  ; detectAct
000a78  1c40              ADDS     r0,r0,#1              ;369
000a7a  4963              LDR      r1,|L2.3080|
000a7c  7208              STRB     r0,[r1,#8]            ;369
000a7e  f7fffffe          BL       xTaskGetTickCount
000a82  4961              LDR      r1,|L2.3080|
000a84  6048              STR      r0,[r1,#4]            ;371  ; detectAct
000a86  4608              MOV      r0,r1                 ;372
000a88  7840              LDRB     r0,[r0,#1]            ;372  ; detectAct
000a8a  1c40              ADDS     r0,r0,#1              ;372
000a8c  7048              STRB     r0,[r1,#1]            ;372
                  |L2.2702|
000a8e  e228              B        |L2.3810|
000a90  f7fffffe          BL       xTaskGetTickCount
000a94  495c              LDR      r1,|L2.3080|
000a96  6849              LDR      r1,[r1,#4]            ;379  ; detectAct
000a98  1a40              SUBS     r0,r0,r1              ;379
000a9a  d016              BEQ      |L2.2762|
000a9c  485a              LDR      r0,|L2.3080|
000a9e  7a00              LDRB     r0,[r0,#8]            ;381  ; detectAct
000aa0  210a              MOVS     r1,#0xa               ;381
000aa2  fb90f2f1          SDIV     r2,r0,r1              ;381
000aa6  fb010012          MLS      r0,r1,r2,r0           ;381
000aaa  4958              LDR      r1,|L2.3084|
000aac  eb010040          ADD      r0,r1,r0,LSL #1       ;381
000ab0  7844              LDRB     r4,[r0,#1]            ;381
000ab2  2100              MOVS     r1,#0                 ;381
000ab4  4620              MOV      r0,r4                 ;381
000ab6  f7fffffe          BL       bsp_AWSetPinVal
000aba  f7fffffe          BL       xTaskGetTickCount
000abe  4952              LDR      r1,|L2.3080|
000ac0  6048              STR      r0,[r1,#4]            ;382  ; detectAct
000ac2  4608              MOV      r0,r1                 ;383
000ac4  7840              LDRB     r0,[r0,#1]            ;383  ; detectAct
000ac6  1c40              ADDS     r0,r0,#1              ;383
000ac8  7048              STRB     r0,[r1,#1]            ;383
                  |L2.2762|
000aca  e20a              B        |L2.3810|
000acc  f7fffffe          BL       xTaskGetTickCount
000ad0  494d              LDR      r1,|L2.3080|
000ad2  6849              LDR      r1,[r1,#4]            ;389  ; detectAct
000ad4  1a40              SUBS     r0,r0,r1              ;389
000ad6  2803              CMP      r0,#3                 ;389
000ad8  d37b              BCC      |L2.3026|
000ada  484b              LDR      r0,|L2.3080|
000adc  7a00              LDRB     r0,[r0,#8]            ;391  ; detectAct
000ade  210a              MOVS     r1,#0xa               ;391
000ae0  fb90f2f1          SDIV     r2,r0,r1              ;391
000ae4  fb010012          MLS      r0,r1,r2,r0           ;391
000ae8  4948              LDR      r1,|L2.3084|
000aea  f8114010          LDRB     r4,[r1,r0,LSL #1]     ;391
000aee  2100              MOVS     r1,#0                 ;391
000af0  4620              MOV      r0,r4                 ;391
000af2  f7fffffe          BL       bsp_AWSetPinVal
000af6  2078              MOVS     r0,#0x78              ;392
000af8  f7fffffe          BL       bsp_DelayUS
000afc  f7fffffe          BL       bsp_GetAdScanValue
000b00  4941              LDR      r1,|L2.3080|
000b02  7a09              LDRB     r1,[r1,#8]            ;393  ; detectAct
000b04  220a              MOVS     r2,#0xa               ;393
000b06  fb91f3f2          SDIV     r3,r1,r2              ;393
000b0a  fb021113          MLS      r1,r2,r3,r1           ;393
000b0e  4a3d              LDR      r2,|L2.3076|
000b10  f8420031          STR      r0,[r2,r1,LSL #3]     ;393
000b14  483c              LDR      r0,|L2.3080|
000b16  7a00              LDRB     r0,[r0,#8]            ;394  ; detectAct
000b18  210a              MOVS     r1,#0xa               ;394
000b1a  fb90f2f1          SDIV     r2,r0,r1              ;394
000b1e  fb010012          MLS      r0,r1,r2,r0           ;394
000b22  493a              LDR      r1,|L2.3084|
000b24  f8114010          LDRB     r4,[r1,r0,LSL #1]     ;394
000b28  2101              MOVS     r1,#1                 ;394
000b2a  4620              MOV      r0,r4                 ;394
000b2c  f7fffffe          BL       bsp_AWSetPinVal
000b30  2014              MOVS     r0,#0x14              ;395
000b32  f7fffffe          BL       bsp_DelayUS
000b36  f7fffffe          BL       bsp_GetAdScanValue
000b3a  4933              LDR      r1,|L2.3080|
000b3c  7a09              LDRB     r1,[r1,#8]            ;396  ; detectAct
000b3e  220a              MOVS     r2,#0xa               ;396
000b40  fb91f3f2          SDIV     r3,r1,r2              ;396
000b44  fb021113          MLS      r1,r2,r3,r1           ;396
000b48  4a2e              LDR      r2,|L2.3076|
000b4a  eb0201c1          ADD      r1,r2,r1,LSL #3       ;396
000b4e  6048              STR      r0,[r1,#4]            ;396
000b50  482d              LDR      r0,|L2.3080|
000b52  7a00              LDRB     r0,[r0,#8]            ;397  ; detectAct
000b54  210a              MOVS     r1,#0xa               ;397
000b56  fb90f2f1          SDIV     r2,r0,r1              ;397
000b5a  fb010012          MLS      r0,r1,r2,r0           ;397
000b5e  492b              LDR      r1,|L2.3084|
000b60  eb010040          ADD      r0,r1,r0,LSL #1       ;397
000b64  7844              LDRB     r4,[r0,#1]            ;397
000b66  2101              MOVS     r1,#1                 ;397
000b68  4620              MOV      r0,r4                 ;397
000b6a  f7fffffe          BL       bsp_AWSetPinVal
000b6e  4926              LDR      r1,|L2.3080|
000b70  784d              LDRB     r5,[r1,#1]            ;399  ; detectAct
000b72  eb0571d5          ADD      r1,r5,r5,LSR #31      ;399
000b76  1049              ASRS     r1,r1,#1              ;399
000b78  4a22              LDR      r2,|L2.3076|
000b7a  eb0201c1          ADD      r1,r2,r1,LSL #3       ;399
000b7e  6848              LDR      r0,[r1,#4]            ;399
000b80  f04f517e          MOV      r1,#0x3f800000        ;399
000b84  f7fffffe          BL       __aeabi_cfrcmple
000b88  d801              BHI      |L2.2958|
000b8a  2000              MOVS     r0,#0                 ;399
000b8c  e007              B        |L2.2974|
                  |L2.2958|
000b8e  481e              LDR      r0,|L2.3080|
000b90  7844              LDRB     r4,[r0,#1]            ;399  ; detectAct
000b92  eb0470d4          ADD      r0,r4,r4,LSR #31      ;399
000b96  1040              ASRS     r0,r0,#1              ;399
000b98  491a              LDR      r1,|L2.3076|
000b9a  f8510030          LDR      r0,[r1,r0,LSL #3]     ;399
                  |L2.2974|
000b9e  491a              LDR      r1,|L2.3080|
000ba0  7a09              LDRB     r1,[r1,#8]            ;399  ; detectAct
000ba2  220a              MOVS     r2,#0xa               ;399
000ba4  fb91f3f2          SDIV     r3,r1,r2              ;399
000ba8  fb021113          MLS      r1,r2,r3,r1           ;399
000bac  4a18              LDR      r2,|L2.3088|
000bae  f8420021          STR      r0,[r2,r1,LSL #2]     ;399
000bb2  4915              LDR      r1,|L2.3080|
000bb4  784c              LDRB     r4,[r1,#1]            ;400  ; detectAct
000bb6  eb0471d4          ADD      r1,r4,r4,LSR #31      ;400
000bba  1049              ASRS     r1,r1,#1              ;400
000bbc  4a11              LDR      r2,|L2.3076|
000bbe  eb0201c1          ADD      r1,r2,r1,LSL #3       ;400
000bc2  6848              LDR      r0,[r1,#4]            ;400
000bc4  f04f517e          MOV      r1,#0x3f800000        ;400
000bc8  f7fffffe          BL       __aeabi_cfrcmple
000bcc  d802              BHI      |L2.3028|
000bce  2001              MOVS     r0,#1                 ;400
000bd0  e001              B        |L2.3030|
                  |L2.3026|
000bd2  e016              B        |L2.3074|
                  |L2.3028|
000bd4  2000              MOVS     r0,#0                 ;400
                  |L2.3030|
000bd6  490c              LDR      r1,|L2.3080|
000bd8  7a09              LDRB     r1,[r1,#8]            ;400  ; detectAct
000bda  220a              MOVS     r2,#0xa               ;400
000bdc  fb91f3f2          SDIV     r3,r1,r2              ;400
000be0  fb021113          MLS      r1,r2,r3,r1           ;400
000be4  4a0b              LDR      r2,|L2.3092|
000be6  5450              STRB     r0,[r2,r1]            ;400
000be8  4807              LDR      r0,|L2.3080|
000bea  7a00              LDRB     r0,[r0,#8]            ;401  ; detectAct
000bec  1c40              ADDS     r0,r0,#1              ;401
000bee  4906              LDR      r1,|L2.3080|
000bf0  7208              STRB     r0,[r1,#8]            ;401
000bf2  f7fffffe          BL       xTaskGetTickCount
000bf6  4904              LDR      r1,|L2.3080|
000bf8  6048              STR      r0,[r1,#4]            ;403  ; detectAct
000bfa  4608              MOV      r0,r1                 ;404
000bfc  7840              LDRB     r0,[r0,#1]            ;404  ; detectAct
000bfe  1c40              ADDS     r0,r0,#1              ;404
000c00  7048              STRB     r0,[r1,#1]            ;404
                  |L2.3074|
000c02  e16e              B        |L2.3810|
                  |L2.3076|
                          DCD      adcContrast
                  |L2.3080|
                          DCD      detectAct
                  |L2.3084|
                          DCD      PinMap
                  |L2.3088|
                          DCD      adcRealTime
                  |L2.3092|
                          DCD      adcIsSunlight
000c18  f7fffffe          BL       xTaskGetTickCount
000c1c  49b3              LDR      r1,|L2.3820|
000c1e  6849              LDR      r1,[r1,#4]            ;411  ; detectAct
000c20  1a40              SUBS     r0,r0,r1              ;411
000c22  d016              BEQ      |L2.3154|
000c24  48b1              LDR      r0,|L2.3820|
000c26  7a00              LDRB     r0,[r0,#8]            ;413  ; detectAct
000c28  210a              MOVS     r1,#0xa               ;413
000c2a  fb90f2f1          SDIV     r2,r0,r1              ;413
000c2e  fb010012          MLS      r0,r1,r2,r0           ;413
000c32  49af              LDR      r1,|L2.3824|
000c34  eb010040          ADD      r0,r1,r0,LSL #1       ;413
000c38  7844              LDRB     r4,[r0,#1]            ;413
000c3a  2100              MOVS     r1,#0                 ;413
000c3c  4620              MOV      r0,r4                 ;413
000c3e  f7fffffe          BL       bsp_AWSetPinVal
000c42  f7fffffe          BL       xTaskGetTickCount
000c46  49a9              LDR      r1,|L2.3820|
000c48  6048              STR      r0,[r1,#4]            ;414  ; detectAct
000c4a  4608              MOV      r0,r1                 ;415
000c4c  7840              LDRB     r0,[r0,#1]            ;415  ; detectAct
000c4e  1c40              ADDS     r0,r0,#1              ;415
000c50  7048              STRB     r0,[r1,#1]            ;415
                  |L2.3154|
000c52  e146              B        |L2.3810|
000c54  f7fffffe          BL       xTaskGetTickCount
000c58  49a4              LDR      r1,|L2.3820|
000c5a  6849              LDR      r1,[r1,#4]            ;421  ; detectAct
000c5c  1a40              SUBS     r0,r0,r1              ;421
000c5e  2803              CMP      r0,#3                 ;421
000c60  d37d              BCC      |L2.3422|
000c62  2078              MOVS     r0,#0x78              ;424
000c64  f7fffffe          BL       bsp_DelayUS
000c68  f7fffffe          BL       bsp_GetAdScanValue
000c6c  499f              LDR      r1,|L2.3820|
000c6e  7a09              LDRB     r1,[r1,#8]            ;425  ; detectAct
000c70  220a              MOVS     r2,#0xa               ;425
000c72  fb91f3f2          SDIV     r3,r1,r2              ;425
000c76  fb021113          MLS      r1,r2,r3,r1           ;425
000c7a  4a9e              LDR      r2,|L2.3828|
000c7c  f8420031          STR      r0,[r2,r1,LSL #3]     ;425
000c80  489a              LDR      r0,|L2.3820|
000c82  7a00              LDRB     r0,[r0,#8]            ;426  ; detectAct
000c84  210a              MOVS     r1,#0xa               ;426
000c86  fb90f2f1          SDIV     r2,r0,r1              ;426
000c8a  fb010012          MLS      r0,r1,r2,r0           ;426
000c8e  4998              LDR      r1,|L2.3824|
000c90  f8114010          LDRB     r4,[r1,r0,LSL #1]     ;426
000c94  2101              MOVS     r1,#1                 ;426
000c96  4620              MOV      r0,r4                 ;426
000c98  f7fffffe          BL       bsp_AWSetPinVal
000c9c  2014              MOVS     r0,#0x14              ;427
000c9e  f7fffffe          BL       bsp_DelayUS
000ca2  f7fffffe          BL       bsp_GetAdScanValue
000ca6  4991              LDR      r1,|L2.3820|
000ca8  7a09              LDRB     r1,[r1,#8]            ;428  ; detectAct
000caa  220a              MOVS     r2,#0xa               ;428
000cac  fb91f3f2          SDIV     r3,r1,r2              ;428
000cb0  fb021113          MLS      r1,r2,r3,r1           ;428
000cb4  4a8f              LDR      r2,|L2.3828|
000cb6  eb0201c1          ADD      r1,r2,r1,LSL #3       ;428
000cba  6048              STR      r0,[r1,#4]            ;428
000cbc  488b              LDR      r0,|L2.3820|
000cbe  7a00              LDRB     r0,[r0,#8]            ;429  ; detectAct
000cc0  210a              MOVS     r1,#0xa               ;429
000cc2  fb90f2f1          SDIV     r2,r0,r1              ;429
000cc6  fb010012          MLS      r0,r1,r2,r0           ;429
000cca  4989              LDR      r1,|L2.3824|
000ccc  eb010040          ADD      r0,r1,r0,LSL #1       ;429
000cd0  7844              LDRB     r4,[r0,#1]            ;429
000cd2  2101              MOVS     r1,#1                 ;429
000cd4  4620              MOV      r0,r4                 ;429
000cd6  f7fffffe          BL       bsp_AWSetPinVal
000cda  4984              LDR      r1,|L2.3820|
000cdc  784d              LDRB     r5,[r1,#1]            ;431  ; detectAct
000cde  eb0571d5          ADD      r1,r5,r5,LSR #31      ;431
000ce2  1049              ASRS     r1,r1,#1              ;431
000ce4  4a83              LDR      r2,|L2.3828|
000ce6  eb0201c1          ADD      r1,r2,r1,LSL #3       ;431
000cea  6848              LDR      r0,[r1,#4]            ;431
000cec  f04f517e          MOV      r1,#0x3f800000        ;431
000cf0  f7fffffe          BL       __aeabi_cfrcmple
000cf4  d801              BHI      |L2.3322|
000cf6  2000              MOVS     r0,#0                 ;431
000cf8  e007              B        |L2.3338|
                  |L2.3322|
000cfa  487c              LDR      r0,|L2.3820|
000cfc  7844              LDRB     r4,[r0,#1]            ;431  ; detectAct
000cfe  eb0470d4          ADD      r0,r4,r4,LSR #31      ;431
000d02  1040              ASRS     r0,r0,#1              ;431
000d04  497b              LDR      r1,|L2.3828|
000d06  f8510030          LDR      r0,[r1,r0,LSL #3]     ;431
                  |L2.3338|
000d0a  4978              LDR      r1,|L2.3820|
000d0c  7a09              LDRB     r1,[r1,#8]            ;431  ; detectAct
000d0e  220a              MOVS     r2,#0xa               ;431
000d10  fb91f3f2          SDIV     r3,r1,r2              ;431
000d14  fb021113          MLS      r1,r2,r3,r1           ;431
000d18  4a77              LDR      r2,|L2.3832|
000d1a  f8420021          STR      r0,[r2,r1,LSL #2]     ;431
000d1e  4973              LDR      r1,|L2.3820|
000d20  784c              LDRB     r4,[r1,#1]            ;432  ; detectAct
000d22  eb0471d4          ADD      r1,r4,r4,LSR #31      ;432
000d26  1049              ASRS     r1,r1,#1              ;432
000d28  4a72              LDR      r2,|L2.3828|
000d2a  eb0201c1          ADD      r1,r2,r1,LSL #3       ;432
000d2e  6848              LDR      r0,[r1,#4]            ;432
000d30  f04f517e          MOV      r1,#0x3f800000        ;432
000d34  f7fffffe          BL       __aeabi_cfrcmple
000d38  d801              BHI      |L2.3390|
000d3a  2001              MOVS     r0,#1                 ;432
000d3c  e000              B        |L2.3392|
                  |L2.3390|
000d3e  2000              MOVS     r0,#0                 ;432
                  |L2.3392|
000d40  496a              LDR      r1,|L2.3820|
000d42  7a09              LDRB     r1,[r1,#8]            ;432  ; detectAct
000d44  220a              MOVS     r2,#0xa               ;432
000d46  fb91f3f2          SDIV     r3,r1,r2              ;432
000d4a  fb021113          MLS      r1,r2,r3,r1           ;432
000d4e  4a6b              LDR      r2,|L2.3836|
000d50  5450              STRB     r0,[r2,r1]            ;432
000d52  4866              LDR      r0,|L2.3820|
000d54  7a00              LDRB     r0,[r0,#8]            ;433  ; detectAct
000d56  1c40              ADDS     r0,r0,#1              ;433
000d58  4964              LDR      r1,|L2.3820|
000d5a  7208              STRB     r0,[r1,#8]            ;433
000d5c  e000              B        |L2.3424|
                  |L2.3422|
000d5e  e007              B        |L2.3440|
                  |L2.3424|
000d60  f7fffffe          BL       xTaskGetTickCount
000d64  4961              LDR      r1,|L2.3820|
000d66  6048              STR      r0,[r1,#4]            ;435  ; detectAct
000d68  4608              MOV      r0,r1                 ;436
000d6a  7840              LDRB     r0,[r0,#1]            ;436  ; detectAct
000d6c  1c40              ADDS     r0,r0,#1              ;436
000d6e  7048              STRB     r0,[r1,#1]            ;436
                  |L2.3440|
000d70  e0b7              B        |L2.3810|
000d72  f7fffffe          BL       xTaskGetTickCount
000d76  495d              LDR      r1,|L2.3820|
000d78  6849              LDR      r1,[r1,#4]            ;444  ; detectAct
000d7a  1a40              SUBS     r0,r0,r1              ;444
000d7c  d016              BEQ      |L2.3500|
000d7e  485b              LDR      r0,|L2.3820|
000d80  7a00              LDRB     r0,[r0,#8]            ;446  ; detectAct
000d82  210a              MOVS     r1,#0xa               ;446
000d84  fb90f2f1          SDIV     r2,r0,r1              ;446
000d88  fb010012          MLS      r0,r1,r2,r0           ;446
000d8c  4958              LDR      r1,|L2.3824|
000d8e  eb010040          ADD      r0,r1,r0,LSL #1       ;446
000d92  7844              LDRB     r4,[r0,#1]            ;446
000d94  2100              MOVS     r1,#0                 ;446
000d96  4620              MOV      r0,r4                 ;446
000d98  f7fffffe          BL       bsp_AWSetPinVal
000d9c  f7fffffe          BL       xTaskGetTickCount
000da0  4952              LDR      r1,|L2.3820|
000da2  6048              STR      r0,[r1,#4]            ;447  ; detectAct
000da4  4608              MOV      r0,r1                 ;448
000da6  7840              LDRB     r0,[r0,#1]            ;448  ; detectAct
000da8  1c40              ADDS     r0,r0,#1              ;448
000daa  7048              STRB     r0,[r1,#1]            ;448
                  |L2.3500|
000dac  e099              B        |L2.3810|
000dae  f7fffffe          BL       xTaskGetTickCount
000db2  494e              LDR      r1,|L2.3820|
000db4  6849              LDR      r1,[r1,#4]            ;454  ; detectAct
000db6  1a40              SUBS     r0,r0,r1              ;454
000db8  2803              CMP      r0,#3                 ;454
000dba  d37d              BCC      |L2.3768|
000dbc  2078              MOVS     r0,#0x78              ;457
000dbe  f7fffffe          BL       bsp_DelayUS
000dc2  f7fffffe          BL       bsp_GetAdScanValue
000dc6  4949              LDR      r1,|L2.3820|
000dc8  7a09              LDRB     r1,[r1,#8]            ;458  ; detectAct
000dca  220a              MOVS     r2,#0xa               ;458
000dcc  fb91f3f2          SDIV     r3,r1,r2              ;458
000dd0  fb021113          MLS      r1,r2,r3,r1           ;458
000dd4  4a47              LDR      r2,|L2.3828|
000dd6  f8420031          STR      r0,[r2,r1,LSL #3]     ;458
000dda  4844              LDR      r0,|L2.3820|
000ddc  7a00              LDRB     r0,[r0,#8]            ;459  ; detectAct
000dde  210a              MOVS     r1,#0xa               ;459
000de0  fb90f2f1          SDIV     r2,r0,r1              ;459
000de4  fb010012          MLS      r0,r1,r2,r0           ;459
000de8  4941              LDR      r1,|L2.3824|
000dea  f8114010          LDRB     r4,[r1,r0,LSL #1]     ;459
000dee  2101              MOVS     r1,#1                 ;459
000df0  4620              MOV      r0,r4                 ;459
000df2  f7fffffe          BL       bsp_AWSetPinVal
000df6  2014              MOVS     r0,#0x14              ;460
000df8  f7fffffe          BL       bsp_DelayUS
000dfc  f7fffffe          BL       bsp_GetAdScanValue
000e00  493a              LDR      r1,|L2.3820|
000e02  7a09              LDRB     r1,[r1,#8]            ;461  ; detectAct
000e04  220a              MOVS     r2,#0xa               ;461
000e06  fb91f3f2          SDIV     r3,r1,r2              ;461
000e0a  fb021113          MLS      r1,r2,r3,r1           ;461
000e0e  4a39              LDR      r2,|L2.3828|
000e10  eb0201c1          ADD      r1,r2,r1,LSL #3       ;461
000e14  6048              STR      r0,[r1,#4]            ;461
000e16  4835              LDR      r0,|L2.3820|
000e18  7a00              LDRB     r0,[r0,#8]            ;462  ; detectAct
000e1a  210a              MOVS     r1,#0xa               ;462
000e1c  fb90f2f1          SDIV     r2,r0,r1              ;462
000e20  fb010012          MLS      r0,r1,r2,r0           ;462
000e24  4932              LDR      r1,|L2.3824|
000e26  eb010040          ADD      r0,r1,r0,LSL #1       ;462
000e2a  7844              LDRB     r4,[r0,#1]            ;462
000e2c  2101              MOVS     r1,#1                 ;462
000e2e  4620              MOV      r0,r4                 ;462
000e30  f7fffffe          BL       bsp_AWSetPinVal
000e34  492d              LDR      r1,|L2.3820|
000e36  784d              LDRB     r5,[r1,#1]            ;464  ; detectAct
000e38  eb0571d5          ADD      r1,r5,r5,LSR #31      ;464
000e3c  1049              ASRS     r1,r1,#1              ;464
000e3e  4a2d              LDR      r2,|L2.3828|
000e40  eb0201c1          ADD      r1,r2,r1,LSL #3       ;464
000e44  6848              LDR      r0,[r1,#4]            ;464
000e46  f04f517e          MOV      r1,#0x3f800000        ;464
000e4a  f7fffffe          BL       __aeabi_cfrcmple
000e4e  d801              BHI      |L2.3668|
000e50  2000              MOVS     r0,#0                 ;464
000e52  e007              B        |L2.3684|
                  |L2.3668|
000e54  4825              LDR      r0,|L2.3820|
000e56  7844              LDRB     r4,[r0,#1]            ;464  ; detectAct
000e58  eb0470d4          ADD      r0,r4,r4,LSR #31      ;464
000e5c  1040              ASRS     r0,r0,#1              ;464
000e5e  4925              LDR      r1,|L2.3828|
000e60  f8510030          LDR      r0,[r1,r0,LSL #3]     ;464
                  |L2.3684|
000e64  4921              LDR      r1,|L2.3820|
000e66  7a09              LDRB     r1,[r1,#8]            ;464  ; detectAct
000e68  220a              MOVS     r2,#0xa               ;464
000e6a  fb91f3f2          SDIV     r3,r1,r2              ;464
000e6e  fb021113          MLS      r1,r2,r3,r1           ;464
000e72  4a21              LDR      r2,|L2.3832|
000e74  f8420021          STR      r0,[r2,r1,LSL #2]     ;464
000e78  491c              LDR      r1,|L2.3820|
000e7a  784c              LDRB     r4,[r1,#1]            ;465  ; detectAct
000e7c  eb0471d4          ADD      r1,r4,r4,LSR #31      ;465
000e80  1049              ASRS     r1,r1,#1              ;465
000e82  4a1c              LDR      r2,|L2.3828|
000e84  eb0201c1          ADD      r1,r2,r1,LSL #3       ;465
000e88  6848              LDR      r0,[r1,#4]            ;465
000e8a  f04f517e          MOV      r1,#0x3f800000        ;465
000e8e  f7fffffe          BL       __aeabi_cfrcmple
000e92  d801              BHI      |L2.3736|
000e94  2001              MOVS     r0,#1                 ;465
000e96  e000              B        |L2.3738|
                  |L2.3736|
000e98  2000              MOVS     r0,#0                 ;465
                  |L2.3738|
000e9a  4914              LDR      r1,|L2.3820|
000e9c  7a09              LDRB     r1,[r1,#8]            ;465  ; detectAct
000e9e  220a              MOVS     r2,#0xa               ;465
000ea0  fb91f3f2          SDIV     r3,r1,r2              ;465
000ea4  fb021113          MLS      r1,r2,r3,r1           ;465
000ea8  4a14              LDR      r2,|L2.3836|
000eaa  5450              STRB     r0,[r2,r1]            ;465
000eac  480f              LDR      r0,|L2.3820|
000eae  7a00              LDRB     r0,[r0,#8]            ;466  ; detectAct
000eb0  1c40              ADDS     r0,r0,#1              ;466
000eb2  490e              LDR      r1,|L2.3820|
000eb4  7208              STRB     r0,[r1,#8]            ;466
000eb6  e000              B        |L2.3770|
                  |L2.3768|
000eb8  e007              B        |L2.3786|
                  |L2.3770|
000eba  f7fffffe          BL       xTaskGetTickCount
000ebe  490b              LDR      r1,|L2.3820|
000ec0  6048              STR      r0,[r1,#4]            ;468  ; detectAct
000ec2  4608              MOV      r0,r1                 ;469
000ec4  7840              LDRB     r0,[r0,#1]            ;469  ; detectAct
000ec6  1c40              ADDS     r0,r0,#1              ;469
000ec8  7048              STRB     r0,[r1,#1]            ;469
                  |L2.3786|
000eca  e00a              B        |L2.3810|
000ecc  f7fffffe          BL       xTaskGetTickCount
000ed0  4906              LDR      r1,|L2.3820|
000ed2  6849              LDR      r1,[r1,#4]            ;475  ; detectAct
000ed4  1a40              SUBS     r0,r0,r1              ;475
000ed6  d003              BEQ      |L2.3808|
000ed8  2000              MOVS     r0,#0                 ;477
000eda  4904              LDR      r1,|L2.3820|
000edc  7048              STRB     r0,[r1,#1]            ;477
000ede  7208              STRB     r0,[r1,#8]            ;478
                  |L2.3808|
000ee0  bf00              NOP                            ;480
                  |L2.3810|
000ee2  bf00              NOP                            ;161
000ee4  bf00              NOP      
000ee6  f7ffb88f          B        |L2.8|
;;;486    
                          ENDP

000eea  0000              DCW      0x0000
                  |L2.3820|
                          DCD      detectAct
                  |L2.3824|
                          DCD      PinMap
                  |L2.3828|
                          DCD      adcContrast
                  |L2.3832|
                          DCD      adcRealTime
                  |L2.3836|
                          DCD      adcIsSunlight

                          AREA ||i.bsp_DetectActTest||, CODE, READONLY, ALIGN=2

                  bsp_DetectActTest PROC
;;;93     
;;;94     void bsp_DetectActTest(uint8_t pinMapIndex)
000000  b570              PUSH     {r4-r6,lr}
;;;95     {
000002  4604              MOV      r4,r0
;;;96     	static uint8_t action = 0 ;
;;;97     	static uint32_t delay = 0 ;
;;;98     	
;;;99     	switch(action)
000004  4835              LDR      r0,|L3.220|
000006  7800              LDRB     r0,[r0,#0]  ; action
000008  b120              CBZ      r0,|L3.20|
00000a  2801              CMP      r0,#1
00000c  d019              BEQ      |L3.66|
00000e  2802              CMP      r0,#2
000010  d161              BNE      |L3.214|
000012  e056              B        |L3.194|
                  |L3.20|
;;;100    	{
;;;101    		case 0:
;;;102    		{
;;;103    			bsp_AWSetPinVal(PinMap[pinMapIndex%PIN_MAP_MAX][1], AW_0); //先开接收，充电
000014  200a              MOVS     r0,#0xa
000016  fb94f1f0          SDIV     r1,r4,r0
00001a  fb004011          MLS      r0,r0,r1,r4
00001e  4930              LDR      r1,|L3.224|
000020  eb010040          ADD      r0,r1,r0,LSL #1
000024  7845              LDRB     r5,[r0,#1]
000026  2100              MOVS     r1,#0
000028  4628              MOV      r0,r5
00002a  f7fffffe          BL       bsp_AWSetPinVal
;;;104    			delay = xTaskGetTickCount();
00002e  f7fffffe          BL       xTaskGetTickCount
000032  492c              LDR      r1,|L3.228|
000034  6008              STR      r0,[r1,#0]  ; delay
;;;105    			action++;
000036  4829              LDR      r0,|L3.220|
000038  7800              LDRB     r0,[r0,#0]  ; action
00003a  1c40              ADDS     r0,r0,#1
00003c  4927              LDR      r1,|L3.220|
00003e  7008              STRB     r0,[r1,#0]
;;;106    			
;;;107    		}break;
000040  e049              B        |L3.214|
                  |L3.66|
;;;108    		
;;;109    		case 1:
;;;110    		{
;;;111    			if(xTaskGetTickCount() - delay >= ChargeTime)
000042  f7fffffe          BL       xTaskGetTickCount
000046  4927              LDR      r1,|L3.228|
000048  6809              LDR      r1,[r1,#0]  ; delay
00004a  1a40              SUBS     r0,r0,r1
00004c  2803              CMP      r0,#3
00004e  d337              BCC      |L3.192|
;;;112    			{
;;;113    				bsp_AWSetPinVal(PinMap[pinMapIndex%PIN_MAP_MAX][0], AW_0); //再开发送，读AD
000050  200a              MOVS     r0,#0xa
000052  fb94f1f0          SDIV     r1,r4,r0
000056  fb004011          MLS      r0,r0,r1,r4
00005a  4921              LDR      r1,|L3.224|
00005c  f8115010          LDRB     r5,[r1,r0,LSL #1]
000060  2100              MOVS     r1,#0
000062  4628              MOV      r0,r5
000064  f7fffffe          BL       bsp_AWSetPinVal
;;;114    				bsp_DelayUS(TimeAfterOpen);
000068  2078              MOVS     r0,#0x78
00006a  f7fffffe          BL       bsp_DelayUS
;;;115    				bsp_GetAdScanValue();
00006e  f7fffffe          BL       bsp_GetAdScanValue
;;;116    				bsp_AWSetPinVal(PinMap[pinMapIndex%PIN_MAP_MAX][0], AW_1);//关发射
000072  200a              MOVS     r0,#0xa
000074  fb94f1f0          SDIV     r1,r4,r0
000078  fb004011          MLS      r0,r0,r1,r4
00007c  4918              LDR      r1,|L3.224|
00007e  f8115010          LDRB     r5,[r1,r0,LSL #1]
000082  2101              MOVS     r1,#1
000084  4628              MOV      r0,r5
000086  f7fffffe          BL       bsp_AWSetPinVal
;;;117    				bsp_DelayUS(TimeAfterClose);
00008a  2014              MOVS     r0,#0x14
00008c  f7fffffe          BL       bsp_DelayUS
;;;118    				bsp_GetAdScanValue();
000090  f7fffffe          BL       bsp_GetAdScanValue
;;;119    				bsp_AWSetPinVal(PinMap[pinMapIndex%PIN_MAP_MAX][1], AW_1);//关接收
000094  200a              MOVS     r0,#0xa
000096  fb94f1f0          SDIV     r1,r4,r0
00009a  fb004011          MLS      r0,r0,r1,r4
00009e  4910              LDR      r1,|L3.224|
0000a0  eb010040          ADD      r0,r1,r0,LSL #1
0000a4  7845              LDRB     r5,[r0,#1]
0000a6  2101              MOVS     r1,#1
0000a8  4628              MOV      r0,r5
0000aa  f7fffffe          BL       bsp_AWSetPinVal
;;;120    				//pinMapIndex++;
;;;121    				
;;;122    				delay = xTaskGetTickCount();
0000ae  f7fffffe          BL       xTaskGetTickCount
0000b2  490c              LDR      r1,|L3.228|
0000b4  6008              STR      r0,[r1,#0]  ; delay
;;;123    				action++;
0000b6  4809              LDR      r0,|L3.220|
0000b8  7800              LDRB     r0,[r0,#0]  ; action
0000ba  1c40              ADDS     r0,r0,#1
0000bc  4907              LDR      r1,|L3.220|
0000be  7008              STRB     r0,[r1,#0]
                  |L3.192|
;;;124    			}
;;;125    		}break;
0000c0  e009              B        |L3.214|
                  |L3.194|
;;;126    		
;;;127    		case 2:
;;;128    		{
;;;129    			if(xTaskGetTickCount() - delay >= (IntervalTime-ChargeTime)) 
0000c2  f7fffffe          BL       xTaskGetTickCount
0000c6  4907              LDR      r1,|L3.228|
0000c8  6809              LDR      r1,[r1,#0]  ; delay
0000ca  1a40              SUBS     r0,r0,r1
0000cc  d002              BEQ      |L3.212|
;;;130    			{
;;;131    				action = 0 ;
0000ce  2000              MOVS     r0,#0
0000d0  4902              LDR      r1,|L3.220|
0000d2  7008              STRB     r0,[r1,#0]
                  |L3.212|
;;;132    			}
;;;133    		}break;
0000d4  bf00              NOP      
                  |L3.214|
0000d6  bf00              NOP                            ;107
;;;134    	}
;;;135    	
;;;136    }
0000d8  bd70              POP      {r4-r6,pc}
;;;137    
                          ENDP

0000da  0000              DCW      0x0000
                  |L3.220|
                          DCD      action
                  |L3.224|
                          DCD      PinMap
                  |L3.228|
                          DCD      delay

                          AREA ||i.bsp_DetectDeal||, CODE, READONLY, ALIGN=2

                  bsp_DetectDeal PROC
;;;601    
;;;602    void bsp_DetectDeal(void)
000000  b510              PUSH     {r4,lr}
;;;603    {
;;;604    	uint8_t i = 0 ;
000002  2400              MOVS     r4,#0
;;;605    
;;;606    	
;;;607    	UNUSED(i);
;;;608    
;;;609    
;;;610    	
;;;611    	//如果是太阳光射到了，开启全闪烁灯
;;;612    	for(i=0;i<=7;i++)
000004  bf00              NOP      
000006  e01b              B        |L4.64|
                  |L4.8|
;;;613    	{
;;;614    		if(adcRealTime[i] >=1.0F)
000008  490f              LDR      r1,|L4.72|
00000a  f8510024          LDR      r0,[r1,r4,LSL #2]
00000e  f04f517e          MOV      r1,#0x3f800000
000012  f7fffffe          BL       __aeabi_cfrcmple
000016  d811              BHI      |L4.60|
;;;615    		{
;;;616    			if(flgdec == 0)
000018  480c              LDR      r0,|L4.76|
00001a  7800              LDRB     r0,[r0,#0]  ; flgdec
00001c  b970              CBNZ     r0,|L4.60|
;;;617    			{
;;;618    				bsp_SetMotorPWM(MotorLeft,Forward, 6000);
00001e  f2417270          MOV      r2,#0x1770
000022  2100              MOVS     r1,#0
000024  4608              MOV      r0,r1
000026  f7fffffe          BL       bsp_SetMotorPWM
;;;619    				bsp_SetMotorPWM(MotorRight,Forward,6000);
00002a  f2417270          MOV      r2,#0x1770
00002e  2100              MOVS     r1,#0
000030  2001              MOVS     r0,#1
000032  f7fffffe          BL       bsp_SetMotorPWM
;;;620    				flgdec = 1 ;
000036  2001              MOVS     r0,#1
000038  4904              LDR      r1,|L4.76|
00003a  7008              STRB     r0,[r1,#0]
                  |L4.60|
00003c  1c60              ADDS     r0,r4,#1              ;612
00003e  b2c4              UXTB     r4,r0                 ;612
                  |L4.64|
000040  2c07              CMP      r4,#7                 ;612
000042  dde1              BLE      |L4.8|
;;;621    			}
;;;622    			
;;;623    		}
;;;624    	}
;;;625    	
;;;626    }
000044  bd10              POP      {r4,pc}
;;;627    
                          ENDP

000046  0000              DCW      0x0000
                  |L4.72|
                          DCD      adcRealTime
                  |L4.76|
                          DCD      flgdec

                          AREA ||i.bsp_DetectStart||, CODE, READONLY, ALIGN=2

                  bsp_DetectStart PROC
;;;66     */
;;;67     void bsp_DetectStart(void)
000000  2000              MOVS     r0,#0
;;;68     {
;;;69     	detectAct.action = 0 ;
000002  4904              LDR      r1,|L5.20|
000004  7048              STRB     r0,[r1,#1]
;;;70     	detectAct.delay = 0 ;
000006  6048              STR      r0,[r1,#4]  ; detectAct
;;;71     	detectAct.adcVal = 0 ;
000008  8148              STRH     r0,[r1,#0xa]
;;;72     	detectAct.pinMapIndex = 0 ;
00000a  7208              STRB     r0,[r1,#8]
;;;73     	detectAct.isRunning = 1 ;
00000c  2001              MOVS     r0,#1
00000e  7008              STRB     r0,[r1,#0]
;;;74     }
000010  4770              BX       lr
;;;75     
                          ENDP

000012  0000              DCW      0x0000
                  |L5.20|
                          DCD      detectAct

                          AREA ||i.bsp_DetectStop||, CODE, READONLY, ALIGN=2

                  bsp_DetectStop PROC
;;;83     */
;;;84     void bsp_DetectStop(void)
000000  2000              MOVS     r0,#0
;;;85     {
;;;86     	detectAct.isRunning = 0 ;
000002  4903              LDR      r1,|L6.16|
000004  7008              STRB     r0,[r1,#0]
;;;87     	detectAct.action = 0 ;
000006  7048              STRB     r0,[r1,#1]
;;;88     	detectAct.delay = 0 ;
000008  6048              STR      r0,[r1,#4]  ; detectAct
;;;89     	detectAct.adcVal = 0 ;
00000a  8148              STRH     r0,[r1,#0xa]
;;;90     	detectAct.pinMapIndex = 0 ;
00000c  7208              STRB     r0,[r1,#8]
;;;91     }
00000e  4770              BX       lr
;;;92     
                          ENDP

                  |L6.16|
                          DCD      detectAct

                          AREA ||i.bsp_GetAdScanValue||, CODE, READONLY, ALIGN=2

                  bsp_GetAdScanValue PROC
;;;543    */
;;;544    float bsp_GetAdScanValue(void)
000000  e92d4ff8          PUSH     {r3-r11,lr}
;;;545    {
;;;546    	uint16_t ret;
;;;547    	uint8_t i = 0 ;
000004  2500              MOVS     r5,#0
;;;548    	uint8_t sampleCount = 3 ; 
000006  2603              MOVS     r6,#3
;;;549    	uint32_t sum = 0 ;
000008  2700              MOVS     r7,#0
;;;550    	float voltage;
;;;551    	
;;;552    	
;;;553    	for(i = 0;i<sampleCount;i++)
00000a  bf00              NOP      
00000c  e017              B        |L7.62|
                  |L7.14|
;;;554    	{
;;;555    		//设置指定ADC的规则组通道，一个序列，采样时间
;;;556    		ADC_RegularChannelConfig(ADC2, ADC_Channel_14, 1, ADC_SampleTime_239Cycles5 );	//ADC2,ADC通道,采样时间为239.5周期	  			    
00000e  2307              MOVS     r3,#7
000010  2201              MOVS     r2,#1
000012  210e              MOVS     r1,#0xe
000014  4817              LDR      r0,|L7.116|
000016  f7fffffe          BL       ADC_RegularChannelConfig
;;;557    	  
;;;558    		ADC_SoftwareStartConvCmd(ADC2, ENABLE);		//使能指定的ADC2的软件转换启动功能	
00001a  2101              MOVS     r1,#1
00001c  4815              LDR      r0,|L7.116|
00001e  f7fffffe          BL       ADC_SoftwareStartConvCmd
;;;559    		 
;;;560    		while(!ADC_GetFlagStatus(ADC2, ADC_FLAG_EOC ));//等待转换结束
000022  bf00              NOP      
                  |L7.36|
000024  2102              MOVS     r1,#2
000026  4813              LDR      r0,|L7.116|
000028  f7fffffe          BL       ADC_GetFlagStatus
00002c  2800              CMP      r0,#0
00002e  d0f9              BEQ      |L7.36|
;;;561    		ret = ADC_GetConversionValue(ADC2);	//返回最近一次ADC2规则组的转换结果
000030  4810              LDR      r0,|L7.116|
000032  f7fffffe          BL       ADC_GetConversionValue
000036  4604              MOV      r4,r0
;;;562    		
;;;563    		sum += ret;
000038  4427              ADD      r7,r7,r4
00003a  1c68              ADDS     r0,r5,#1              ;553
00003c  b2c5              UXTB     r5,r0                 ;553
                  |L7.62|
00003e  42b5              CMP      r5,r6                 ;553
000040  dbe5              BLT      |L7.14|
;;;564    	}
;;;565    	
;;;566    	voltage = (sum / (float)sampleCount)*3.3F/4096;
000042  4630              MOV      r0,r6
000044  f7fffffe          BL       __aeabi_ui2f
000048  4683              MOV      r11,r0
00004a  4638              MOV      r0,r7
00004c  f7fffffe          BL       __aeabi_ui2f
000050  4659              MOV      r1,r11
000052  9000              STR      r0,[sp,#0]
000054  f7fffffe          BL       __aeabi_fdiv
000058  4682              MOV      r10,r0
00005a  4907              LDR      r1,|L7.120|
00005c  f7fffffe          BL       __aeabi_fmul
000060  4681              MOV      r9,r0
000062  f04f418b          MOV      r1,#0x45800000
000066  f7fffffe          BL       __aeabi_fdiv
00006a  4680              MOV      r8,r0
;;;567    
;;;568    	return voltage;
00006c  4640              MOV      r0,r8
;;;569    }
00006e  e8bd8ff8          POP      {r3-r11,pc}
;;;570    
                          ENDP

000072  0000              DCW      0x0000
                  |L7.116|
                          DCD      0x40012800
                  |L7.120|
                          DCD      0x40533333

                          AREA ||i.bsp_GetInfraredVoltageLeft||, CODE, READONLY, ALIGN=2

                  bsp_GetInfraredVoltageLeft PROC
;;;579    */
;;;580    float bsp_GetInfraredVoltageLeft(void)
000000  4801              LDR      r0,|L8.8|
;;;581    {
;;;582    	return adcRealTime[8];
000002  6a00              LDR      r0,[r0,#0x20]  ; adcRealTime
;;;583    }
000004  4770              BX       lr
;;;584    
                          ENDP

000006  0000              DCW      0x0000
                  |L8.8|
                          DCD      adcRealTime

                          AREA ||i.bsp_GetInfraredVoltageRight||, CODE, READONLY, ALIGN=2

                  bsp_GetInfraredVoltageRight PROC
;;;592    */
;;;593    float bsp_GetInfraredVoltageRight(void)
000000  4801              LDR      r0,|L9.8|
;;;594    {
;;;595    	return adcRealTime[9];
000002  6a40              LDR      r0,[r0,#0x24]  ; adcRealTime
;;;596    }
000004  4770              BX       lr
;;;597    
                          ENDP

000006  0000              DCW      0x0000
                  |L9.8|
                          DCD      adcRealTime

                          AREA ||i.bsp_InitDetectAct||, CODE, READONLY, ALIGN=2

                  bsp_InitDetectAct PROC
;;;43     */
;;;44     void bsp_InitDetectAct(void)
000000  b510              PUSH     {r4,lr}
;;;45     {
;;;46     	UNUSED(adcRealTime);
;;;47     	UNUSED(adcIsSunlight);
;;;48     	
;;;49     	bsp_ADCConfig();
000002  f7fffffe          BL       bsp_ADCConfig
;;;50     	
;;;51     	detectAct.isRunning = 0 ;
000006  2000              MOVS     r0,#0
000008  4903              LDR      r1,|L10.24|
00000a  7008              STRB     r0,[r1,#0]
;;;52     	detectAct.action = 0 ;
00000c  7048              STRB     r0,[r1,#1]
;;;53     	detectAct.delay = 0 ;
00000e  6048              STR      r0,[r1,#4]  ; detectAct
;;;54     	detectAct.adcVal = 0 ;
000010  8148              STRH     r0,[r1,#0xa]
;;;55     	detectAct.pinMapIndex = 0 ;
000012  7208              STRB     r0,[r1,#8]
;;;56     	
;;;57     }
000014  bd10              POP      {r4,pc}
;;;58     
                          ENDP

000016  0000              DCW      0x0000
                  |L10.24|
                          DCD      detectAct

                          AREA ||.bss||, DATA, NOINIT, ALIGN=2

                  detectAct
                          %        12
                  adcContrast
                          %        80
                  adcRealTime
                          %        40
                  adcIsSunlight
                          %        10

                          AREA ||.data||, DATA, ALIGN=2

                  PinMap
000000  0d070d05          DCB      0x0d,0x07,0x0d,0x05
000004  0f040f03          DCB      0x0f,0x04,0x0f,0x03
000008  08020901          DCB      0x08,0x02,0x09,0x01
00000c  0a000e06          DCB      0x0a,0x00,0x0e,0x06
000010  0c0c0b0b          DCB      0x0c,0x0c,0x0b,0x0b
                  flgdec
000014  00                DCB      0x00
                  action
000015  000000            DCB      0x00,0x00,0x00
                  delay
                          DCD      0x00000000

;*** Start embedded assembler ***

#line 1 "..\\..\\User\\app\\src\\bsp_DetectAct.c"
	AREA ||.rev16_text||, CODE
	THUMB
	EXPORT |__asm___15_bsp_DetectAct_c_PinMap____REV16|
#line 114 "..\\..\\Libraries\\CMSIS\\Include\\core_cmInstr.h"
|__asm___15_bsp_DetectAct_c_PinMap____REV16| PROC
#line 115

 rev16 r0, r0
 bx lr
	ENDP
	AREA ||.revsh_text||, CODE
	THUMB
	EXPORT |__asm___15_bsp_DetectAct_c_PinMap____REVSH|
#line 128
|__asm___15_bsp_DetectAct_c_PinMap____REVSH| PROC
#line 129

 revsh r0, r0
 bx lr
	ENDP

;*** End   embedded assembler ***
